; generated by Component: ARM Compiler 5.06 update 6 (build 750) Tool: ArmCC [4d3637]
; commandline ArmCC [--list --split_sections --debug -c --asm --interleave -o.\obj\crypto.o --asm_dir=.\lst\ --list_dir=.\lst\ --depend=.\obj\crypto.d --cpu=Cortex-M4.fp --apcs=interwork --diag_suppress=9931 -I..\..\..\Library\CMSIS\Include -I..\..\..\Library\Device\Nuvoton\M480\Include -I..\..\..\Library\StdDriver\inc -IC:\Keil_v5\ARM\RV31\INC -IC:\Keil_v5\ARM\CMSIS\Include -D__MICROLIB -D__UVISION_VERSION=526 --omf_browse=.\obj\crypto.crf ..\..\..\Library\StdDriver\src\crypto.c]
                          THUMB

                          AREA ||i.AES_Open||, CODE, READONLY, ALIGN=2

                  AES_Open PROC
;;;136      */
;;;137    void AES_Open(CRPT_T *crpt, uint32_t u32Channel, uint32_t u32EncDec,
000000  b570              PUSH     {r4-r6,lr}
;;;138                  uint32_t u32OpMode, uint32_t u32KeySize, uint32_t u32SwapType)
;;;139    {
;;;140        crpt->AES_CTL = (u32Channel << CRPT_AES_CTL_CHANNEL_Pos) |
000002  060e              LSLS     r6,r1,#24
000004  e9dd4504          LDRD     r4,r5,[sp,#0x10]      ;139
000008  ea464202          ORR      r2,r6,r2,LSL #16
00000c  ea422203          ORR      r2,r2,r3,LSL #8
000010  ea420284          ORR      r2,r2,r4,LSL #2
000014  ea425285          ORR      r2,r2,r5,LSL #22
000018  f8c02100          STR      r2,[r0,#0x100]
;;;141                        (u32EncDec << CRPT_AES_CTL_ENCRPT_Pos) |
;;;142                        (u32OpMode << CRPT_AES_CTL_OPMODE_Pos) |
;;;143                        (u32KeySize << CRPT_AES_CTL_KEYSZ_Pos) |
;;;144                        (u32SwapType << CRPT_AES_CTL_OUTSWAP_Pos);
;;;145        g_AES_CTL[u32Channel] = crpt->AES_CTL;
00001c  f8d00100          LDR      r0,[r0,#0x100]
000020  4a01              LDR      r2,|L1.40|
000022  f8420021          STR      r0,[r2,r1,LSL #2]
;;;146    }
000026  bd70              POP      {r4-r6,pc}
;;;147    
                          ENDP

                  |L1.40|
                          DCD      ||.bss||

                          AREA ||i.AES_SetDMATransfer||, CODE, READONLY, ALIGN=1

                  AES_SetDMATransfer PROC
;;;217      */
;;;218    void AES_SetDMATransfer(CRPT_T *crpt, uint32_t u32Channel, uint32_t u32SrcAddr,
000000  b510              PUSH     {r4,lr}
;;;219                            uint32_t u32DstAddr, uint32_t u32TransCnt)
;;;220    {
;;;221        uint32_t  reg_addr;
;;;222    
;;;223        reg_addr = (uint32_t)&crpt->AES0_SADDR + (u32Channel * 0x3CUL);
000002  ebc11101          RSB      r1,r1,r1,LSL #4
000006  eb000081          ADD      r0,r0,r1,LSL #2
00000a  f44f71a0          MOV      r1,#0x140
;;;224        outpw(reg_addr, u32SrcAddr);
00000e  9c02              LDR      r4,[sp,#8]
000010  500a              STR      r2,[r1,r0]
;;;225    
;;;226        reg_addr = (uint32_t)&crpt->AES0_DADDR + (u32Channel * 0x3CUL);
000012  1d09              ADDS     r1,r1,#4
;;;227        outpw(reg_addr, u32DstAddr);
000014  500b              STR      r3,[r1,r0]
;;;228    
;;;229        reg_addr = (uint32_t)&crpt->AES0_CNT + (u32Channel * 0x3CUL);
;;;230        outpw(reg_addr, u32TransCnt);
000016  f8c04148          STR      r4,[r0,#0x148]
;;;231    }
00001a  bd10              POP      {r4,pc}
;;;232    
                          ENDP


                          AREA ||i.AES_SetInitVect||, CODE, READONLY, ALIGN=1

                  AES_SetInitVect PROC
;;;195      */
;;;196    void AES_SetInitVect(CRPT_T *crpt, uint32_t u32Channel, uint32_t au32IV[])
000000  ebc11101          RSB      r1,r1,r1,LSL #4
;;;197    {
;;;198        uint32_t  i, key_reg_addr;
;;;199    
;;;200        key_reg_addr = (uint32_t)&crpt->AES0_IV[0] + (u32Channel * 0x3CUL);
000004  eb000181          ADD      r1,r0,r1,LSL #2
;;;201    
;;;202        for (i = 0U; i < 4U; i++)
000008  2000              MOVS     r0,#0
00000a  f5017198          ADD      r1,r1,#0x130
                  |L3.14|
;;;203        {
;;;204            outpw(key_reg_addr, au32IV[i]);
00000e  f8523020          LDR      r3,[r2,r0,LSL #2]
000012  c108              STM      r1!,{r3}
000014  1c40              ADDS     r0,r0,#1
000016  2804              CMP      r0,#4                 ;202
000018  d3f9              BCC      |L3.14|
;;;205            key_reg_addr += 4UL;
;;;206        }
;;;207    }
00001a  4770              BX       lr
;;;208    
                          ENDP


                          AREA ||i.AES_SetKey||, CODE, READONLY, ALIGN=1

                  AES_SetKey PROC
;;;174      */
;;;175    void AES_SetKey(CRPT_T *crpt, uint32_t u32Channel, uint32_t au32Keys[], uint32_t u32KeySize)
000000  ebc11101          RSB      r1,r1,r1,LSL #4
;;;176    {
;;;177        uint32_t  i, wcnt, key_reg_addr;
;;;178    
;;;179        key_reg_addr = (uint32_t)&crpt->AES0_KEY[0] + (u32Channel * 0x3CUL);
000004  eb000181          ADD      r1,r0,r1,LSL #2
;;;180        wcnt = 4UL + u32KeySize*2UL;
000008  2004              MOVS     r0,#4
00000a  b510              PUSH     {r4,lr}               ;176
00000c  eb000343          ADD      r3,r0,r3,LSL #1
;;;181    
;;;182        for (i = 0U; i < wcnt; i++)
000010  2000              MOVS     r0,#0
000012  f5017188          ADD      r1,r1,#0x110
000016  e003              B        |L4.32|
                  |L4.24|
;;;183        {
;;;184            outpw(key_reg_addr, au32Keys[i]);
000018  f8524020          LDR      r4,[r2,r0,LSL #2]
00001c  c110              STM      r1!,{r4}
00001e  1c40              ADDS     r0,r0,#1
                  |L4.32|
000020  4298              CMP      r0,r3                 ;182
000022  d3f9              BCC      |L4.24|
;;;185            key_reg_addr += 4UL;
;;;186        }
;;;187    }
000024  bd10              POP      {r4,pc}
;;;188    
                          ENDP


                          AREA ||i.AES_Start||, CODE, READONLY, ALIGN=2

                  AES_Start PROC
;;;157      */
;;;158    void AES_Start(CRPT_T *crpt, uint32_t u32Channel, uint32_t u32DMAMode)
000000  4b06              LDR      r3,|L5.28|
;;;159    {
;;;160        crpt->AES_CTL = g_AES_CTL[u32Channel];
000002  f8531021          LDR      r1,[r3,r1,LSL #2]
000006  f8c01100          STR      r1,[r0,#0x100]
;;;161        crpt->AES_CTL |= CRPT_AES_CTL_START_Msk | (u32DMAMode << CRPT_AES_CTL_DMALAST_Pos);
00000a  f8d01100          LDR      r1,[r0,#0x100]
00000e  2301              MOVS     r3,#1
000010  eb031242          ADD      r2,r3,r2,LSL #5
000014  4311              ORRS     r1,r1,r2
000016  f8c01100          STR      r1,[r0,#0x100]
;;;162    }
00001a  4770              BX       lr
;;;163    
                          ENDP

                  |L5.28|
                          DCD      ||.bss||

                          AREA ||i.ECC_Complete||, CODE, READONLY, ALIGN=2

                  ECC_Complete PROC
;;;1133     */
;;;1134   void ECC_Complete(CRPT_T *crpt)
000000  6841              LDR      r1,[r0,#4]
;;;1135   {
;;;1136       if (crpt->INTSTS & CRPT_INTSTS_ECCIF_Msk)
;;;1137       {
;;;1138           g_ECC_done = 1UL;
000002  f04f0201          MOV      r2,#1
000006  024b              LSLS     r3,r1,#9              ;1136
000008  4906              LDR      r1,|L6.36|
00000a  d502              BPL      |L6.18|
00000c  604a              STR      r2,[r1,#4]  ; g_ECC_done
;;;1139           crpt->INTSTS = CRPT_INTSTS_ECCIF_Msk;
00000e  0593              LSLS     r3,r2,#22
000010  6043              STR      r3,[r0,#4]
                  |L6.18|
;;;1140           /* printf("ECC done IRQ.\n"); */
;;;1141       }
;;;1142   
;;;1143       if (crpt->INTSTS & CRPT_INTSTS_ECCEIF_Msk)
000012  6843              LDR      r3,[r0,#4]
000014  021b              LSLS     r3,r3,#8
000016  d503              BPL      |L6.32|
;;;1144       {
;;;1145           g_ECCERR_done = 1UL;
000018  608a              STR      r2,[r1,#8]  ; g_ECCERR_done
;;;1146           crpt->INTSTS = CRPT_INTSTS_ECCEIF_Msk;
00001a  f44f0100          MOV      r1,#0x800000
00001e  6041              STR      r1,[r0,#4]
                  |L6.32|
;;;1147           /* printf("ECCERRIF is set!!\n"); */
;;;1148       }
;;;1149   }
000020  4770              BX       lr
;;;1150   
                          ENDP

000022  0000              DCW      0x0000
                  |L6.36|
                          DCD      ||.data||

                          AREA ||i.ECC_GeneratePublicKey||, CODE, READONLY, ALIGN=2

                  ECC_GeneratePublicKey PROC
;;;1206     */
;;;1207   int32_t  ECC_GeneratePublicKey(CRPT_T *crpt, E_ECC_CURVE ecc_curve, char *private_k, char public_k1[], char public_k2[])
000000  e92d47f0          PUSH     {r4-r10,lr}
;;;1208   {
000004  4698              MOV      r8,r3
000006  4617              MOV      r7,r2
000008  4604              MOV      r4,r0
;;;1209       int32_t  i, ret = 0;
00000a  2600              MOVS     r6,#0
;;;1210   
;;;1211       if (ecc_init_curve(crpt, ecc_curve) != 0)
00000c  f8dd9020          LDR      r9,[sp,#0x20]
000010  f7fffffe          BL       ecc_init_curve
000014  b108              CBZ      r0,|L7.26|
;;;1212       {
;;;1213           ret = -1;
000016  1e76              SUBS     r6,r6,#1
000018  e034              B        |L7.132|
                  |L7.26|
;;;1214       }
;;;1215   
;;;1216       if (ret == 0)
;;;1217       {
;;;1218           for (i = 0; i < 18; i++)
00001a  2000              MOVS     r0,#0
00001c  4605              MOV      r5,r0
                  |L7.30|
;;;1219           {
;;;1220               crpt->ECC_K[i] = 0UL;
00001e  eb040180          ADD      r1,r4,r0,LSL #2
000022  f8c15a00          STR      r5,[r1,#0xa00]
000026  1c40              ADDS     r0,r0,#1
000028  2812              CMP      r0,#0x12              ;1218
00002a  dbf8              BLT      |L7.30|
;;;1221           }
;;;1222           Hex2Reg(private_k, crpt->ECC_K);
00002c  f5046120          ADD      r1,r4,#0xa00
000030  4638              MOV      r0,r7
000032  f7fffffe          BL       Hex2Reg
;;;1223   
;;;1224           /* set FSEL (Field selection) */
;;;1225           if (pCurve->GF == (int)CURVE_GF_2M)
000036  4f16              LDR      r7,|L7.144|
000038  683a              LDR      r2,[r7,#0]  ; pCurve
00003a  f8d203c0          LDR      r0,[r2,#0x3c0]
00003e  2801              CMP      r0,#1
000040  d023              BEQ      |L7.138|
;;;1226           {
;;;1227               crpt->ECC_CTL = 0UL;
;;;1228           }
;;;1229           else
;;;1230           {
;;;1231               /*  CURVE_GF_P */
;;;1232               crpt->ECC_CTL = CRPT_ECC_CTL_FSEL_Msk;
000042  f44f7080          MOV      r0,#0x100
000046  f8c40800          STR      r0,[r4,#0x800]
                  |L7.74|
;;;1233           }
;;;1234   
;;;1235           g_ECC_done = g_ECCERR_done = 0UL;
00004a  60bd              STR      r5,[r7,#8]  ; g_ECCERR_done
00004c  607d              STR      r5,[r7,#4]  ; g_ECC_done
;;;1236           crpt->ECC_CTL |= ((uint32_t)pCurve->key_len << CRPT_ECC_CTL_CURVEM_Pos) |
00004e  f8d40800          LDR      r0,[r4,#0x800]
000052  f8b213b0          LDRH     r1,[r2,#0x3b0]
000056  2301              MOVS     r3,#1
000058  ea435181          ORR      r1,r3,r1,LSL #22
00005c  4308              ORRS     r0,r0,r1
00005e  f8c40800          STR      r0,[r4,#0x800]
                  |L7.98|
;;;1237                            ECCOP_POINT_MUL | CRPT_ECC_CTL_START_Msk;
;;;1238   
;;;1239           while ((g_ECC_done | g_ECCERR_done) == 0UL)
000062  6878              LDR      r0,[r7,#4]  ; g_ECC_done
000064  68b9              LDR      r1,[r7,#8]  ; g_ECCERR_done
000066  4308              ORRS     r0,r0,r1
000068  d0fb              BEQ      |L7.98|
;;;1240           {
;;;1241           }
;;;1242   
;;;1243           Reg2Hex(pCurve->Echar, crpt->ECC_X1, public_k1);
00006a  6850              LDR      r0,[r2,#4]
00006c  4642              MOV      r2,r8
00006e  f6040108          ADD      r1,r4,#0x808
000072  f7fffffe          BL       Reg2Hex
;;;1244           Reg2Hex(pCurve->Echar, crpt->ECC_Y1, public_k2);
000076  6838              LDR      r0,[r7,#0]  ; pCurve
000078  464a              MOV      r2,r9
00007a  f5046105          ADD      r1,r4,#0x850
00007e  6840              LDR      r0,[r0,#4]
000080  f7fffffe          BL       Reg2Hex
                  |L7.132|
;;;1245       }
;;;1246   
;;;1247       return ret;
000084  4630              MOV      r0,r6
;;;1248   }
000086  e8bd87f0          POP      {r4-r10,pc}
                  |L7.138|
00008a  f8c45800          STR      r5,[r4,#0x800]        ;1227
00008e  e7dc              B        |L7.74|
;;;1249   
                          ENDP

                  |L7.144|
                          DCD      ||.data||

                          AREA ||i.ECC_GenerateSecretZ||, CODE, READONLY, ALIGN=2

                  ECC_GenerateSecretZ PROC
;;;1319     */
;;;1320   int32_t  ECC_GenerateSecretZ(CRPT_T *crpt, E_ECC_CURVE ecc_curve, char *private_k, char public_k1[], char public_k2[], char secret_z[])
000000  e92d5ff0          PUSH     {r4-r12,lr}
;;;1321   {
000004  4699              MOV      r9,r3
000006  e9ddba0a          LDRD     r11,r10,[sp,#0x28]
00000a  4690              MOV      r8,r2
00000c  460c              MOV      r4,r1
00000e  4605              MOV      r5,r0
;;;1322       int32_t  i, ret = 0;
000010  2700              MOVS     r7,#0
;;;1323   
;;;1324       if (ecc_init_curve(crpt, ecc_curve) != 0)
000012  f7fffffe          BL       ecc_init_curve
000016  b108              CBZ      r0,|L8.28|
;;;1325       {
;;;1326           ret = -1;
000018  1e7f              SUBS     r7,r7,#1
00001a  e04f              B        |L8.188|
                  |L8.28|
;;;1327       }
;;;1328   
;;;1329       if (ret == 0)
;;;1330       {
;;;1331           for (i = 0; i < 18; i++)
00001c  2000              MOVS     r0,#0
00001e  4606              MOV      r6,r0
                  |L8.32|
;;;1332           {
;;;1333               crpt->ECC_K[i] = 0UL;
000020  eb050180          ADD      r1,r5,r0,LSL #2
000024  f8c16a00          STR      r6,[r1,#0xa00]
;;;1334               crpt->ECC_X1[i] = 0UL;
000028  f8c16808          STR      r6,[r1,#0x808]
;;;1335               crpt->ECC_Y1[i] = 0UL;
00002c  f8c16850          STR      r6,[r1,#0x850]
000030  1c40              ADDS     r0,r0,#1
000032  2812              CMP      r0,#0x12              ;1331
000034  dbf4              BLT      |L8.32|
;;;1336           }
;;;1337   
;;;1338           if ((ecc_curve == CURVE_B_163) || (ecc_curve == CURVE_B_233) || (ecc_curve == CURVE_B_283) ||
;;;1339                   (ecc_curve == CURVE_B_409) || (ecc_curve == CURVE_B_571) || (ecc_curve == CURVE_K_163))
;;;1340           {
;;;1341               Hex2RegEx(private_k, crpt->ECC_K, 1);
000036  f5056120          ADD      r1,r5,#0xa00
00003a  2c0a              CMP      r4,#0xa               ;1338
00003c  d041              BEQ      |L8.194|
00003e  2c0b              CMP      r4,#0xb               ;1338
000040  d03f              BEQ      |L8.194|
000042  2c0c              CMP      r4,#0xc               ;1338
000044  d03d              BEQ      |L8.194|
000046  2c0d              CMP      r4,#0xd               ;1339
000048  d03b              BEQ      |L8.194|
00004a  2c0e              CMP      r4,#0xe               ;1339
00004c  d039              BEQ      |L8.194|
00004e  2c05              CMP      r4,#5                 ;1339
000050  d037              BEQ      |L8.194|
;;;1342           }
;;;1343           else if ((ecc_curve == CURVE_K_233) || (ecc_curve == CURVE_K_283) ||
000052  2c06              CMP      r4,#6
000054  d037              BEQ      |L8.198|
000056  2c07              CMP      r4,#7
000058  d035              BEQ      |L8.198|
;;;1344                    (ecc_curve == CURVE_K_409) || (ecc_curve == CURVE_K_571))
00005a  2c08              CMP      r4,#8
00005c  d033              BEQ      |L8.198|
00005e  2c09              CMP      r4,#9
000060  d031              BEQ      |L8.198|
;;;1345           {
;;;1346               Hex2RegEx(private_k, crpt->ECC_K, 2);
;;;1347           }
;;;1348           else
;;;1349           {
;;;1350               Hex2Reg(private_k, crpt->ECC_K);
000062  4640              MOV      r0,r8
000064  f7fffffe          BL       Hex2Reg
                  |L8.104|
;;;1351           }
;;;1352   
;;;1353           Hex2Reg(public_k1, crpt->ECC_X1);
000068  f6050108          ADD      r1,r5,#0x808
00006c  460c              MOV      r4,r1
00006e  4648              MOV      r0,r9
000070  f7fffffe          BL       Hex2Reg
;;;1354           Hex2Reg(public_k2, crpt->ECC_Y1);
000074  f5056105          ADD      r1,r5,#0x850
000078  4658              MOV      r0,r11
00007a  f7fffffe          BL       Hex2Reg
;;;1355   
;;;1356           /* set FSEL (Field selection) */
;;;1357           if (pCurve->GF == (int)CURVE_GF_2M)
00007e  4916              LDR      r1,|L8.216|
000080  680b              LDR      r3,[r1,#0]  ; pCurve
000082  f8d303c0          LDR      r0,[r3,#0x3c0]
000086  2801              CMP      r0,#1
000088  d022              BEQ      |L8.208|
;;;1358           {
;;;1359               crpt->ECC_CTL = 0UL;
;;;1360           }
;;;1361           else
;;;1362           {
;;;1363               /*  CURVE_GF_P */
;;;1364               crpt->ECC_CTL = CRPT_ECC_CTL_FSEL_Msk;
00008a  f44f7080          MOV      r0,#0x100
00008e  f8c50800          STR      r0,[r5,#0x800]
                  |L8.146|
;;;1365           }
;;;1366           g_ECC_done = g_ECCERR_done = 0UL;
000092  608e              STR      r6,[r1,#8]  ; g_ECCERR_done
000094  604e              STR      r6,[r1,#4]  ; g_ECC_done
;;;1367           crpt->ECC_CTL |= ((uint32_t)pCurve->key_len << CRPT_ECC_CTL_CURVEM_Pos) |
000096  f8d50800          LDR      r0,[r5,#0x800]
00009a  f8b323b0          LDRH     r2,[r3,#0x3b0]
00009e  2601              MOVS     r6,#1
0000a0  ea465282          ORR      r2,r6,r2,LSL #22
0000a4  4310              ORRS     r0,r0,r2
0000a6  f8c50800          STR      r0,[r5,#0x800]
                  |L8.170|
;;;1368                            ECCOP_POINT_MUL | CRPT_ECC_CTL_START_Msk;
;;;1369   
;;;1370           while ((g_ECC_done | g_ECCERR_done) == 0UL)
0000aa  6848              LDR      r0,[r1,#4]  ; g_ECC_done
0000ac  688a              LDR      r2,[r1,#8]  ; g_ECCERR_done
0000ae  4310              ORRS     r0,r0,r2
0000b0  d0fb              BEQ      |L8.170|
;;;1371           {
;;;1372           }
;;;1373   
;;;1374           Reg2Hex(pCurve->Echar, crpt->ECC_X1, secret_z);
0000b2  4652              MOV      r2,r10
0000b4  4621              MOV      r1,r4
0000b6  6858              LDR      r0,[r3,#4]
0000b8  f7fffffe          BL       Reg2Hex
                  |L8.188|
;;;1375       }
;;;1376   
;;;1377       return ret;
0000bc  4638              MOV      r0,r7
;;;1378   }
0000be  e8bd9ff0          POP      {r4-r12,pc}
                  |L8.194|
0000c2  2201              MOVS     r2,#1                 ;1341
0000c4  e000              B        |L8.200|
                  |L8.198|
0000c6  2202              MOVS     r2,#2                 ;1346
                  |L8.200|
0000c8  4640              MOV      r0,r8                 ;1346
0000ca  f7fffffe          BL       Hex2RegEx
0000ce  e7cb              B        |L8.104|
                  |L8.208|
0000d0  f8c56800          STR      r6,[r5,#0x800]        ;1359
0000d4  e7dd              B        |L8.146|
;;;1379   
                          ENDP

0000d6  0000              DCW      0x0000
                  |L8.216|
                          DCD      ||.data||

                          AREA ||i.ECC_GenerateSignature||, CODE, READONLY, ALIGN=2

                  ECC_GenerateSignature PROC
;;;1425     */
;;;1426   int32_t  ECC_GenerateSignature(CRPT_T *crpt, E_ECC_CURVE ecc_curve, char *message,
000000  e92d4fff          PUSH     {r0-r11,lr}
;;;1427                                  char *d, char *k, char *R, char *S)
;;;1428   {
000004  b0a7              SUB      sp,sp,#0x9c
000006  469a              MOV      r10,r3
000008  4604              MOV      r4,r0
;;;1429       uint32_t volatile temp_result1[18], temp_result2[18];
;;;1430       int32_t  i, ret = 0;
00000a  f04f0800          MOV      r8,#0
;;;1431   
;;;1432       if (ecc_init_curve(crpt, ecc_curve) != 0)
00000e  f8dd90d4          LDR      r9,[sp,#0xd4]
000012  f7fffffe          BL       ecc_init_curve
000016  b110              CBZ      r0,|L9.30|
;;;1433       {
;;;1434           ret = -1;
000018  f04f38ff          MOV      r8,#0xffffffff
00001c  e0f1              B        |L9.514|
                  |L9.30|
;;;1435       }
;;;1436   
;;;1437       if (ret == 0)
;;;1438       {
;;;1439           /*
;;;1440            *   1. Calculate e = HASH(m), where HASH is a cryptographic hashing algorithm, (i.e. SHA-1)
;;;1441            *      (1) Use SHA to calculate e
;;;1442            */
;;;1443   
;;;1444           /*   2. Select a random integer k form [1, n-1]
;;;1445            *      (1) Notice that n is order, not prime modulus or irreducible polynomial function
;;;1446            */
;;;1447   
;;;1448           /*
;;;1449            *   3. Compute r = x1 (mod n), where (x1, y1) = k * G. If r = 0, go to step 2
;;;1450            *      (1) Write the curve parameter A, B, and curve length M to corresponding registers
;;;1451            *      (2) Write the prime modulus or irreducible polynomial function to N registers according
;;;1452            *      (3) Write the point G(x, y) to X1, Y1 registers
;;;1453            *      (4) Write the random integer k to K register
;;;1454            *      (5) Set ECCOP(CRPT_ECC_CTL[10:9]) to 00
;;;1455            *      (6) Set FSEL(CRPT_ECC_CTL[8]) according to used curve of prime field or binary field
;;;1456            *      (7) Set START(CRPT_ECC_CTL[0]) to 1
;;;1457            *      (8) Wait for BUSY(CRPT_ECC_STS[0]) be cleared
;;;1458            *      (9) Write the curve order and curve length to N ,M registers according
;;;1459            *      (10) Write 0x0 to Y1 registers
;;;1460            *      (11) Set ECCOP(CRPT_ECC_CTL[10:9]) to 01
;;;1461            *      (12) Set MOPOP(CRPT_ECC_CTL[12:11]) to 10
;;;1462            *      (13) Set START(CRPT_ECC_CTL[0]) to 1         *
;;;1463            *      (14) Wait for BUSY(CRPT_ECC_STS[0]) be cleared
;;;1464            *      (15) Read X1 registers to get r
;;;1465            */
;;;1466   
;;;1467           /* 3-(4) Write the random integer k to K register */
;;;1468           for (i = 0; i < 18; i++)
00001e  2000              MOVS     r0,#0
000020  4605              MOV      r5,r0
                  |L9.34|
;;;1469           {
;;;1470               crpt->ECC_K[i] = 0UL;
000022  eb040180          ADD      r1,r4,r0,LSL #2
000026  f8c15a00          STR      r5,[r1,#0xa00]
00002a  1c40              ADDS     r0,r0,#1
00002c  2812              CMP      r0,#0x12              ;1468
00002e  dbf8              BLT      |L9.34|
;;;1471           }
;;;1472           Hex2Reg(k, crpt->ECC_K);
000030  f5046120          ADD      r1,r4,#0xa00
000034  9834              LDR      r0,[sp,#0xd0]
000036  f7fffffe          BL       Hex2Reg
;;;1473   
;;;1474           run_ecc_codec(crpt, ECCOP_POINT_MUL);
00003a  2100              MOVS     r1,#0
00003c  4620              MOV      r0,r4
00003e  f7fffffe          BL       run_ecc_codec
;;;1475   
;;;1476           /*  3-(9) Write the curve order to N registers */
;;;1477           for (i = 0; i < 18; i++)
000042  2000              MOVS     r0,#0
                  |L9.68|
;;;1478           {
;;;1479               crpt->ECC_N[i] = 0UL;
000044  eb040180          ADD      r1,r4,r0,LSL #2
000048  f8c159b8          STR      r5,[r1,#0x9b8]
00004c  1c40              ADDS     r0,r0,#1
00004e  2812              CMP      r0,#0x12              ;1477
000050  dbf8              BLT      |L9.68|
;;;1480           }
;;;1481           Hex2Reg(pCurve->Eorder, crpt->ECC_N);
000052  4f6e              LDR      r7,|L9.524|
000054  f60411b8          ADD      r1,r4,#0x9b8
000058  9124              STR      r1,[sp,#0x90]
00005a  6838              LDR      r0,[r7,#0]  ; pCurve
00005c  f5007040          ADD      r0,r0,#0x300
000060  f7fffffe          BL       Hex2Reg
;;;1482   
;;;1483           /* 3-(10) Write 0x0 to Y1 registers */
;;;1484           for (i = 0; i < 18; i++)
000064  2000              MOVS     r0,#0
                  |L9.102|
;;;1485           {
;;;1486               crpt->ECC_Y1[i] = 0UL;
000066  eb040180          ADD      r1,r4,r0,LSL #2
00006a  f8c15850          STR      r5,[r1,#0x850]
00006e  1c40              ADDS     r0,r0,#1
000070  2812              CMP      r0,#0x12              ;1484
000072  dbf8              BLT      |L9.102|
;;;1487           }
;;;1488   
;;;1489           run_ecc_codec(crpt, ECCOP_MODULE | MODOP_ADD);
000074  f44f5b90          MOV      r11,#0x1200
000078  4659              MOV      r1,r11
00007a  4620              MOV      r0,r4
00007c  f7fffffe          BL       run_ecc_codec
;;;1490   
;;;1491           /* 3-(15) Read X1 registers to get r */
;;;1492           for (i = 0; i < 18; i++)
000080  2000              MOVS     r0,#0
;;;1493           {
;;;1494               temp_result1[i] = crpt->ECC_X1[i];
000082  466e              MOV      r6,sp
                  |L9.132|
000084  eb040180          ADD      r1,r4,r0,LSL #2
000088  f8d11808          LDR      r1,[r1,#0x808]
00008c  f8461020          STR      r1,[r6,r0,LSL #2]
000090  1c40              ADDS     r0,r0,#1
000092  2812              CMP      r0,#0x12              ;1492
000094  dbf6              BLT      |L9.132|
;;;1495           }
;;;1496   
;;;1497           Reg2Hex(pCurve->Echar, temp_result1, R);
000096  6838              LDR      r0,[r7,#0]  ; pCurve
000098  464a              MOV      r2,r9
00009a  4631              MOV      r1,r6
00009c  6840              LDR      r0,[r0,#4]
00009e  f7fffffe          BL       Reg2Hex
;;;1498   
;;;1499           /*
;;;1500            *   4. Compute s = k ? 1 กั (e + d กั r)(mod n). If s = 0, go to step 2
;;;1501            *      (1) Write the curve order to N registers according
;;;1502            *      (2) Write 0x1 to Y1 registers
;;;1503            *      (3) Write the random integer k to X1 registers according
;;;1504            *      (4) Set ECCOP(CRPT_ECC_CTL[10:9]) to 01
;;;1505            *      (5) Set MOPOP(CRPT_ECC_CTL[12:11]) to 00
;;;1506            *      (6) Set START(CRPT_ECC_CTL[0]) to 1
;;;1507            *      (7) Wait for BUSY(CRPT_ECC_STS[0]) be cleared
;;;1508            *      (8) Read X1 registers to get k^-1
;;;1509            *      (9) Write the curve order and curve length to N ,M registers
;;;1510            *      (10) Write r, d to X1, Y1 registers
;;;1511            *      (11) Set ECCOP(CRPT_ECC_CTL[10:9]) to 01
;;;1512            *      (12) Set MOPOP(CRPT_ECC_CTL[12:11]) to 01
;;;1513            *      (13) Set START(CRPT_ECC_CTL[0]) to 1
;;;1514            *      (14) Wait for BUSY(CRPT_ECC_STS[0]) be cleared
;;;1515            *      (15) Write the curve order to N registers
;;;1516            *      (16) Write e to Y1 registers
;;;1517            *      (17) Set ECCOP(CRPT_ECC_CTL[10:9]) to 01
;;;1518            *      (18) Set MOPOP(CRPT_ECC_CTL[12:11]) to 10
;;;1519            *      (19) Set START(CRPT_ECC_CTL[0]) to 1
;;;1520            *      (20) Wait for BUSY(CRPT_ECC_STS[0]) be cleared
;;;1521            *      (21) Write the curve order and curve length to N ,M registers
;;;1522            *      (22) Write k^-1 to Y1 registers
;;;1523            *      (23) Set ECCOP(CRPT_ECC_CTL[10:9]) to 01
;;;1524            *      (24) Set MOPOP(CRPT_ECC_CTL[12:11]) to 01
;;;1525            *      (25) Set START(CRPT_ECC_CTL[0]) to 1
;;;1526            *      (26) Wait for BUSY(CRPT_ECC_STS[0]) be cleared
;;;1527            *      (27) Read X1 registers to get s
;;;1528            */
;;;1529   
;;;1530           /* S/W: GFp_add_mod_order(pCurve->key_len+2, 0, x1, a, R); */
;;;1531   
;;;1532           /*  4-(1) Write the curve order to N registers */
;;;1533           for (i = 0; i < 18; i++)
0000a2  2000              MOVS     r0,#0
                  |L9.164|
;;;1534           {
;;;1535               crpt->ECC_N[i] = 0UL;
0000a4  eb040180          ADD      r1,r4,r0,LSL #2
0000a8  f8c159b8          STR      r5,[r1,#0x9b8]
0000ac  1c40              ADDS     r0,r0,#1
0000ae  2812              CMP      r0,#0x12              ;1533
0000b0  dbf8              BLT      |L9.164|
;;;1536           }
;;;1537           Hex2Reg(pCurve->Eorder, crpt->ECC_N);
0000b2  6838              LDR      r0,[r7,#0]  ; pCurve
0000b4  46b9              MOV      r9,r7
0000b6  9924              LDR      r1,[sp,#0x90]
0000b8  f5007040          ADD      r0,r0,#0x300
0000bc  f7fffffe          BL       Hex2Reg
;;;1538   
;;;1539           /*  4-(2) Write 0x1 to Y1 registers */
;;;1540           for (i = 0; i < 18; i++)
0000c0  2000              MOVS     r0,#0
                  |L9.194|
;;;1541           {
;;;1542               crpt->ECC_Y1[i] = 0UL;
0000c2  eb040180          ADD      r1,r4,r0,LSL #2
0000c6  f8c15850          STR      r5,[r1,#0x850]
0000ca  1c40              ADDS     r0,r0,#1
0000cc  2812              CMP      r0,#0x12              ;1540
0000ce  dbf8              BLT      |L9.194|
;;;1543           }
;;;1544           crpt->ECC_Y1[0] = 0x1UL;
0000d0  2001              MOVS     r0,#1
0000d2  f8c40850          STR      r0,[r4,#0x850]
;;;1545   
;;;1546           /*  4-(3) Write the random integer k to X1 registers */
;;;1547           for (i = 0; i < 18; i++)
0000d6  2000              MOVS     r0,#0
                  |L9.216|
;;;1548           {
;;;1549               crpt->ECC_X1[i] = 0UL;
0000d8  eb040180          ADD      r1,r4,r0,LSL #2
0000dc  f8c15808          STR      r5,[r1,#0x808]
0000e0  1c40              ADDS     r0,r0,#1
0000e2  2812              CMP      r0,#0x12              ;1547
0000e4  dbf8              BLT      |L9.216|
;;;1550           }
;;;1551           Hex2Reg(k, crpt->ECC_X1);
0000e6  f6040108          ADD      r1,r4,#0x808
0000ea  9834              LDR      r0,[sp,#0xd0]
0000ec  f7fffffe          BL       Hex2Reg
;;;1552   
;;;1553           run_ecc_codec(crpt, ECCOP_MODULE | MODOP_DIV);
0000f0  f44f7100          MOV      r1,#0x200
0000f4  4620              MOV      r0,r4
0000f6  f7fffffe          BL       run_ecc_codec
;;;1554   
;;;1555   #if ENABLE_DEBUG
;;;1556           Reg2Hex(pCurve->Echar, crpt->ECC_X1, temp_hex_str);
;;;1557           CRPT_DBGMSG("(7) output = %s\n", temp_hex_str);
;;;1558   #endif
;;;1559   
;;;1560           /*  4-(8) Read X1 registers to get k^-1 */
;;;1561   
;;;1562           for (i = 0; i < 18; i++)
0000fa  2000              MOVS     r0,#0
;;;1563           {
;;;1564               temp_result2[i] = crpt->ECC_X1[i];
0000fc  af12              ADD      r7,sp,#0x48
                  |L9.254|
0000fe  eb040180          ADD      r1,r4,r0,LSL #2
000102  f8d11808          LDR      r1,[r1,#0x808]
000106  f8471020          STR      r1,[r7,r0,LSL #2]
00010a  1c40              ADDS     r0,r0,#1
00010c  2812              CMP      r0,#0x12              ;1562
00010e  dbf6              BLT      |L9.254|
;;;1565           }
;;;1566   
;;;1567   #if ENABLE_DEBUG
;;;1568           Reg2Hex(pCurve->Echar, temp_result2, temp_hex_str);
;;;1569           CRPT_DBGMSG("k^-1 = %s\n", temp_hex_str);
;;;1570   #endif
;;;1571   
;;;1572           /*  4-(9) Write the curve order and curve length to N ,M registers */
;;;1573           for (i = 0; i < 18; i++)
000110  2000              MOVS     r0,#0
                  |L9.274|
;;;1574           {
;;;1575               crpt->ECC_N[i] = 0UL;
000112  eb040180          ADD      r1,r4,r0,LSL #2
000116  f8c159b8          STR      r5,[r1,#0x9b8]
00011a  1c40              ADDS     r0,r0,#1
00011c  2812              CMP      r0,#0x12              ;1573
00011e  dbf8              BLT      |L9.274|
;;;1576           }
;;;1577           Hex2Reg(pCurve->Eorder, crpt->ECC_N);
000120  f8d90000          LDR      r0,[r9,#0]  ; pCurve
000124  9924              LDR      r1,[sp,#0x90]
000126  f5007040          ADD      r0,r0,#0x300
00012a  f7fffffe          BL       Hex2Reg
;;;1578   
;;;1579           /*  4-(10) Write r, d to X1, Y1 registers */
;;;1580           for (i = 0; i < 18; i++)
00012e  2000              MOVS     r0,#0
                  |L9.304|
;;;1581           {
;;;1582               crpt->ECC_X1[i] = temp_result1[i];
000130  f8561020          LDR      r1,[r6,r0,LSL #2]
000134  eb040280          ADD      r2,r4,r0,LSL #2
000138  f8c21808          STR      r1,[r2,#0x808]
00013c  1c40              ADDS     r0,r0,#1
00013e  2812              CMP      r0,#0x12              ;1580
000140  dbf6              BLT      |L9.304|
;;;1583           }
;;;1584   
;;;1585           for (i = 0; i < 18; i++)
000142  2000              MOVS     r0,#0
                  |L9.324|
;;;1586           {
;;;1587               crpt->ECC_Y1[i] = 0UL;
000144  eb040180          ADD      r1,r4,r0,LSL #2
000148  f8c15850          STR      r5,[r1,#0x850]
00014c  1c40              ADDS     r0,r0,#1
00014e  2812              CMP      r0,#0x12              ;1585
000150  dbf8              BLT      |L9.324|
;;;1588           }
;;;1589           Hex2Reg(d, crpt->ECC_Y1);
000152  f5046105          ADD      r1,r4,#0x850
000156  4650              MOV      r0,r10
000158  9125              STR      r1,[sp,#0x94]
00015a  f7fffffe          BL       Hex2Reg
;;;1590   
;;;1591           run_ecc_codec(crpt, ECCOP_MODULE | MODOP_MUL);
00015e  f44f6a20          MOV      r10,#0xa00
000162  4651              MOV      r1,r10
000164  4620              MOV      r0,r4
000166  f7fffffe          BL       run_ecc_codec
;;;1592   
;;;1593   #if ENABLE_DEBUG
;;;1594           Reg2Hex(pCurve->Echar, crpt->ECC_X1, temp_hex_str);
;;;1595           CRPT_DBGMSG("(14) output = %s\n", temp_hex_str);
;;;1596   #endif
;;;1597   
;;;1598           /*  4-(15) Write the curve order to N registers */
;;;1599           for (i = 0; i < 18; i++)
00016a  2000              MOVS     r0,#0
                  |L9.364|
;;;1600           {
;;;1601               crpt->ECC_N[i] = 0UL;
00016c  eb040180          ADD      r1,r4,r0,LSL #2
000170  f8c159b8          STR      r5,[r1,#0x9b8]
000174  1c40              ADDS     r0,r0,#1
000176  2812              CMP      r0,#0x12              ;1599
000178  dbf8              BLT      |L9.364|
;;;1602           }
;;;1603           Hex2Reg(pCurve->Eorder, crpt->ECC_N);
00017a  f8d90000          LDR      r0,[r9,#0]  ; pCurve
00017e  464e              MOV      r6,r9
000180  9924              LDR      r1,[sp,#0x90]
000182  f5007040          ADD      r0,r0,#0x300
000186  f7fffffe          BL       Hex2Reg
;;;1604   
;;;1605           /*  4-(16) Write e to Y1 registers */
;;;1606           for (i = 0; i < 18; i++)
00018a  2000              MOVS     r0,#0
                  |L9.396|
;;;1607           {
;;;1608               crpt->ECC_Y1[i] = 0UL;
00018c  eb040180          ADD      r1,r4,r0,LSL #2
000190  f8c15850          STR      r5,[r1,#0x850]
000194  1c40              ADDS     r0,r0,#1
000196  2812              CMP      r0,#0x12              ;1606
000198  dbf8              BLT      |L9.396|
;;;1609           }
;;;1610           Hex2Reg(message, crpt->ECC_Y1);
00019a  9925              LDR      r1,[sp,#0x94]
00019c  9829              LDR      r0,[sp,#0xa4]
00019e  f7fffffe          BL       Hex2Reg
;;;1611   
;;;1612           run_ecc_codec(crpt, ECCOP_MODULE | MODOP_ADD);
0001a2  4659              MOV      r1,r11
0001a4  4620              MOV      r0,r4
0001a6  f7fffffe          BL       run_ecc_codec
;;;1613   
;;;1614   #if ENABLE_DEBUG
;;;1615           Reg2Hex(pCurve->Echar, crpt->ECC_X1, temp_hex_str);
;;;1616           CRPT_DBGMSG("(20) output = %s\n", temp_hex_str);
;;;1617   #endif
;;;1618   
;;;1619           /*  4-(21) Write the curve order and curve length to N ,M registers */
;;;1620           for (i = 0; i < 18; i++)
0001aa  2000              MOVS     r0,#0
                  |L9.428|
;;;1621           {
;;;1622               crpt->ECC_N[i] = 0UL;
0001ac  eb040180          ADD      r1,r4,r0,LSL #2
0001b0  f8c159b8          STR      r5,[r1,#0x9b8]
0001b4  1c40              ADDS     r0,r0,#1
0001b6  2812              CMP      r0,#0x12              ;1620
0001b8  dbf8              BLT      |L9.428|
;;;1623           }
;;;1624           Hex2Reg(pCurve->Eorder, crpt->ECC_N);
0001ba  6830              LDR      r0,[r6,#0]  ; pCurve
0001bc  9924              LDR      r1,[sp,#0x90]
0001be  f5007040          ADD      r0,r0,#0x300
0001c2  f7fffffe          BL       Hex2Reg
;;;1625   
;;;1626           /*  4-(22) Write k^-1 to Y1 registers */
;;;1627           for (i = 0; i < 18; i++)
0001c6  2000              MOVS     r0,#0
                  |L9.456|
;;;1628           {
;;;1629               crpt->ECC_Y1[i] = temp_result2[i];
0001c8  f8571020          LDR      r1,[r7,r0,LSL #2]
0001cc  eb040280          ADD      r2,r4,r0,LSL #2
0001d0  f8c21850          STR      r1,[r2,#0x850]
0001d4  1c40              ADDS     r0,r0,#1
0001d6  2812              CMP      r0,#0x12              ;1627
0001d8  dbf6              BLT      |L9.456|
;;;1630           }
;;;1631   
;;;1632           run_ecc_codec(crpt, ECCOP_MODULE | MODOP_MUL);
0001da  4651              MOV      r1,r10
0001dc  4620              MOV      r0,r4
0001de  f7fffffe          BL       run_ecc_codec
;;;1633   
;;;1634           /*  4-(27) Read X1 registers to get s */
;;;1635           for (i = 0; i < 18; i++)
0001e2  2000              MOVS     r0,#0
                  |L9.484|
;;;1636           {
;;;1637               temp_result2[i] = crpt->ECC_X1[i];
0001e4  eb040180          ADD      r1,r4,r0,LSL #2
0001e8  f8d11808          LDR      r1,[r1,#0x808]
0001ec  f8471020          STR      r1,[r7,r0,LSL #2]
0001f0  1c40              ADDS     r0,r0,#1
0001f2  2812              CMP      r0,#0x12              ;1635
0001f4  dbf6              BLT      |L9.484|
;;;1638           }
;;;1639   
;;;1640           Reg2Hex(pCurve->Echar, temp_result2, S);
0001f6  6830              LDR      r0,[r6,#0]  ; pCurve
0001f8  a912              ADD      r1,sp,#0x48
0001fa  9a36              LDR      r2,[sp,#0xd8]
0001fc  6840              LDR      r0,[r0,#4]
0001fe  f7fffffe          BL       Reg2Hex
                  |L9.514|
;;;1641   
;;;1642       }  /* ret == 0 */
;;;1643   
;;;1644       return ret;
;;;1645   }
000202  b02b              ADD      sp,sp,#0xac
000204  4640              MOV      r0,r8                 ;1644
000206  e8bd8ff0          POP      {r4-r11,pc}
;;;1646   
                          ENDP

00020a  0000              DCW      0x0000
                  |L9.524|
                          DCD      ||.data||

                          AREA ||i.ECC_IsPrivateKeyValid||, CODE, READONLY, ALIGN=2

                  ECC_IsPrivateKeyValid PROC
;;;1159     */
;;;1160   int ECC_IsPrivateKeyValid(CRPT_T *crpt, E_ECC_CURVE ecc_curve, char private_k[])
000000  e92d41f0          PUSH     {r4-r8,lr}
;;;1161   {
000004  4616              MOV      r6,r2
000006  4608              MOV      r0,r1
;;;1162       uint32_t  i;
;;;1163       int       ret = -1;
000008  f04f35ff          MOV      r5,#0xffffffff
;;;1164   
;;;1165       pCurve = get_curve(ecc_curve);
00000c  f7fffffe          BL       get_curve
000010  4c21              LDR      r4,|L10.152|
;;;1166       if (pCurve == NULL)
;;;1167       {
;;;1168           ret = -1;
;;;1169       }
;;;1170   
;;;1171       if (strlen(private_k) < strlen(pCurve->Eorder))
000012  6020              STR      r0,[r4,#0]  ; pCurve
000014  4630              MOV      r0,r6
000016  f7fffffe          BL       strlen
00001a  4607              MOV      r7,r0
00001c  6820              LDR      r0,[r4,#0]  ; pCurve
00001e  f5007040          ADD      r0,r0,#0x300
000022  f7fffffe          BL       strlen
000026  4287              CMP      r7,r0
000028  d200              BCS      |L10.44|
;;;1172       {
;;;1173           ret = 1;
00002a  2501              MOVS     r5,#1
                  |L10.44|
;;;1174       }
;;;1175   
;;;1176       if (strlen(private_k) > strlen(pCurve->Eorder))
00002c  4630              MOV      r0,r6
00002e  f7fffffe          BL       strlen
000032  4607              MOV      r7,r0
000034  6820              LDR      r0,[r4,#0]  ; pCurve
000036  46a0              MOV      r8,r4
000038  f5007040          ADD      r0,r0,#0x300
00003c  f7fffffe          BL       strlen
000040  4287              CMP      r7,r0
000042  d900              BLS      |L10.70|
;;;1177       {
;;;1178           ret = 0;
000044  2500              MOVS     r5,#0
                  |L10.70|
;;;1179       }
;;;1180   
;;;1181       for (i = 0UL; i < strlen(private_k); i++)
000046  2400              MOVS     r4,#0
000048  e01e              B        |L10.136|
                  |L10.74|
;;;1182       {
;;;1183           if (get_nibble_value(private_k[i]) < get_nibble_value(pCurve->Eorder[i]))
00004a  5d30              LDRB     r0,[r6,r4]
00004c  f7fffffe          BL       get_nibble_value
000050  4607              MOV      r7,r0
000052  f8d80000          LDR      r0,[r8,#0]  ; pCurve
000056  4420              ADD      r0,r0,r4
000058  f8900300          LDRB     r0,[r0,#0x300]
00005c  f7fffffe          BL       get_nibble_value
000060  4287              CMP      r7,r0
000062  da01              BGE      |L10.104|
;;;1184           {
;;;1185               ret = 1;
000064  2501              MOVS     r5,#1
;;;1186               break;
000066  e014              B        |L10.146|
                  |L10.104|
;;;1187           }
;;;1188           if (get_nibble_value(private_k[i]) > get_nibble_value(pCurve->Eorder[i]))
000068  5d30              LDRB     r0,[r6,r4]
00006a  f7fffffe          BL       get_nibble_value
00006e  4607              MOV      r7,r0
000070  f8d80000          LDR      r0,[r8,#0]  ; pCurve
000074  4420              ADD      r0,r0,r4
000076  f8900300          LDRB     r0,[r0,#0x300]
00007a  f7fffffe          BL       get_nibble_value
00007e  4287              CMP      r7,r0
000080  dd01              BLE      |L10.134|
;;;1189           {
;;;1190               ret = 0;
000082  2500              MOVS     r5,#0
;;;1191               break;
000084  e005              B        |L10.146|
                  |L10.134|
000086  1c64              ADDS     r4,r4,#1
                  |L10.136|
000088  4630              MOV      r0,r6                 ;1181
00008a  f7fffffe          BL       strlen
00008e  42a0              CMP      r0,r4                 ;1181
000090  d8db              BHI      |L10.74|
                  |L10.146|
;;;1192           }
;;;1193       }
;;;1194       return ret;
000092  4628              MOV      r0,r5
;;;1195   }
000094  e8bd81f0          POP      {r4-r8,pc}
;;;1196   
                          ENDP

                  |L10.152|
                          DCD      ||.data||

                          AREA ||i.ECC_Mutiply||, CODE, READONLY, ALIGN=2

                  ECC_Mutiply PROC
;;;1261     */
;;;1262   int32_t  ECC_Mutiply(CRPT_T *crpt, E_ECC_CURVE ecc_curve, char x1[], char y1[], char *k, char x2[], char y2[])
000000  e92d4ff8          PUSH     {r3-r11,lr}
;;;1263   {
000004  4690              MOV      r8,r2
000006  aa0a              ADD      r2,sp,#0x28
000008  461f              MOV      r7,r3
00000a  e8920e00          LDM      r2,{r9-r11}
00000e  4604              MOV      r4,r0
;;;1264       int32_t  i, ret = 0;
000010  2600              MOVS     r6,#0
;;;1265   
;;;1266       if (ecc_init_curve(crpt, ecc_curve) != 0)
000012  f7fffffe          BL       ecc_init_curve
000016  b108              CBZ      r0,|L11.28|
;;;1267       {
;;;1268           ret = -1;
000018  1e76              SUBS     r6,r6,#1
00001a  e042              B        |L11.162|
                  |L11.28|
;;;1269       }
;;;1270   
;;;1271       if (ret == 0)
;;;1272       {
;;;1273           for (i = 0; i < 18; i++)
00001c  2000              MOVS     r0,#0
00001e  4605              MOV      r5,r0
                  |L11.32|
;;;1274           {
;;;1275               crpt->ECC_X1[i] = 0UL;
000020  eb040180          ADD      r1,r4,r0,LSL #2
000024  f8c15808          STR      r5,[r1,#0x808]
;;;1276               crpt->ECC_Y1[i] = 0UL;
000028  f8c15850          STR      r5,[r1,#0x850]
;;;1277               crpt->ECC_K[i] = 0UL;
00002c  f8c15a00          STR      r5,[r1,#0xa00]
000030  1c40              ADDS     r0,r0,#1
000032  2812              CMP      r0,#0x12              ;1273
000034  dbf4              BLT      |L11.32|
;;;1278           }
;;;1279           Hex2Reg(x1, crpt->ECC_X1);
000036  f6040108          ADD      r1,r4,#0x808
00003a  4640              MOV      r0,r8
00003c  9100              STR      r1,[sp,#0]
00003e  f7fffffe          BL       Hex2Reg
;;;1280           Hex2Reg(y1, crpt->ECC_Y1);
000042  f5046105          ADD      r1,r4,#0x850
000046  4688              MOV      r8,r1
000048  4638              MOV      r0,r7
00004a  f7fffffe          BL       Hex2Reg
;;;1281           Hex2Reg(k, crpt->ECC_K);
00004e  f5046120          ADD      r1,r4,#0xa00
000052  4648              MOV      r0,r9
000054  f7fffffe          BL       Hex2Reg
;;;1282   
;;;1283           /* set FSEL (Field selection) */
;;;1284           if (pCurve->GF == (int)CURVE_GF_2M)
000058  4f15              LDR      r7,|L11.176|
00005a  683a              LDR      r2,[r7,#0]  ; pCurve
00005c  f8d203c0          LDR      r0,[r2,#0x3c0]
000060  2801              CMP      r0,#1
000062  d021              BEQ      |L11.168|
;;;1285           {
;;;1286               crpt->ECC_CTL = 0UL;
;;;1287           }
;;;1288           else
;;;1289           {
;;;1290               /*  CURVE_GF_P */
;;;1291               crpt->ECC_CTL = CRPT_ECC_CTL_FSEL_Msk;
000064  f44f7080          MOV      r0,#0x100
000068  f8c40800          STR      r0,[r4,#0x800]
                  |L11.108|
;;;1292           }
;;;1293   
;;;1294           g_ECC_done = g_ECCERR_done = 0UL;
00006c  60bd              STR      r5,[r7,#8]  ; g_ECCERR_done
00006e  607d              STR      r5,[r7,#4]  ; g_ECC_done
;;;1295           crpt->ECC_CTL |= ((uint32_t)pCurve->key_len << CRPT_ECC_CTL_CURVEM_Pos) |
000070  f8d40800          LDR      r0,[r4,#0x800]
000074  f8b213b0          LDRH     r1,[r2,#0x3b0]
000078  2301              MOVS     r3,#1
00007a  ea435181          ORR      r1,r3,r1,LSL #22
00007e  4308              ORRS     r0,r0,r1
000080  f8c40800          STR      r0,[r4,#0x800]
                  |L11.132|
;;;1296                            ECCOP_POINT_MUL | CRPT_ECC_CTL_START_Msk;
;;;1297   
;;;1298           while ((g_ECC_done | g_ECCERR_done) == 0UL)
000084  6878              LDR      r0,[r7,#4]  ; g_ECC_done
000086  68b9              LDR      r1,[r7,#8]  ; g_ECCERR_done
000088  4308              ORRS     r0,r0,r1
00008a  d0fb              BEQ      |L11.132|
;;;1299           {
;;;1300           }
;;;1301   
;;;1302           Reg2Hex(pCurve->Echar, crpt->ECC_X1, x2);
00008c  6850              LDR      r0,[r2,#4]
00008e  4652              MOV      r2,r10
000090  9900              LDR      r1,[sp,#0]
000092  f7fffffe          BL       Reg2Hex
;;;1303           Reg2Hex(pCurve->Echar, crpt->ECC_Y1, y2);
000096  6838              LDR      r0,[r7,#0]  ; pCurve
000098  465a              MOV      r2,r11
00009a  4641              MOV      r1,r8
00009c  6840              LDR      r0,[r0,#4]
00009e  f7fffffe          BL       Reg2Hex
                  |L11.162|
;;;1304       }
;;;1305   
;;;1306       return ret;
0000a2  4630              MOV      r0,r6
;;;1307   }
0000a4  e8bd8ff8          POP      {r3-r11,pc}
                  |L11.168|
0000a8  f8c45800          STR      r5,[r4,#0x800]        ;1286
0000ac  e7de              B        |L11.108|
;;;1308   
                          ENDP

0000ae  0000              DCW      0x0000
                  |L11.176|
                          DCD      ||.data||

                          AREA ||i.ECC_VerifySignature||, CODE, READONLY, ALIGN=2

                  ECC_VerifySignature PROC
;;;1659     */
;;;1660   int32_t  ECC_VerifySignature(CRPT_T *crpt, E_ECC_CURVE ecc_curve, char *message,
000000  e92d4fff          PUSH     {r0-r11,lr}
;;;1661                                char *public_k1, char *public_k2, char *R, char *S)
;;;1662   {
000004  b0cb              SUB      sp,sp,#0x12c
000006  4691              MOV      r9,r2
000008  4604              MOV      r4,r0
;;;1663       uint32_t  temp_result1[18], temp_result2[18];
;;;1664       uint32_t  temp_x[18], temp_y[18];
;;;1665       int32_t   i, ret = 0;
00000a  f04f0a00          MOV      r10,#0
;;;1666   
;;;1667       /*
;;;1668        *   1. Verify that r and s are integers in the interval [1, n-1]. If not, the signature is invalid
;;;1669        *   2. Compute e = HASH (m), where HASH is the hashing algorithm in signature generation
;;;1670        *      (1) Use SHA to calculate e
;;;1671        */
;;;1672   
;;;1673       /*
;;;1674        *   3. Compute w = s^-1 (mod n)
;;;1675        *      (1) Write the curve order to N registers
;;;1676        *      (2) Write 0x1 to Y1 registers
;;;1677        *      (3) Write s to X1 registers
;;;1678        *      (4) Set ECCOP(CRPT_ECC_CTL[10:9]) to 01
;;;1679        *      (5) Set MOPOP(CRPT_ECC_CTL[12:11]) to 00
;;;1680        *      (6) Set FSEL(CRPT_ECC_CTL[8]) according to used curve of prime field or binary field
;;;1681        *      (7) Set START(CRPT_ECC_CTL[0]) to 1
;;;1682        *      (8) Wait for BUSY(CRPT_ECC_STS[0]) be cleared
;;;1683        *      (9) Read X1 registers to get w
;;;1684        */
;;;1685   
;;;1686       if (ecc_init_curve(crpt, ecc_curve) != 0)
00000e  9e5a              LDR      r6,[sp,#0x168]
000010  994c              LDR      r1,[sp,#0x130]
000012  f7fffffe          BL       ecc_init_curve
000016  b110              CBZ      r0,|L12.30|
;;;1687       {
;;;1688           ret = -1;
000018  f04f30ff          MOV      r0,#0xffffffff
00001c  e175              B        |L12.778|
                  |L12.30|
;;;1689       }
;;;1690   
;;;1691       if (ret == 0)
;;;1692       {
;;;1693           /*  3-(1) Write the curve order to N registers */
;;;1694           for (i = 0; i < 18; i++)
00001e  2000              MOVS     r0,#0
000020  4605              MOV      r5,r0
                  |L12.34|
;;;1695           {
;;;1696               crpt->ECC_N[i] = 0UL;
000022  eb040180          ADD      r1,r4,r0,LSL #2
000026  f8c159b8          STR      r5,[r1,#0x9b8]
00002a  1c40              ADDS     r0,r0,#1
00002c  2812              CMP      r0,#0x12              ;1694
00002e  dbf8              BLT      |L12.34|
;;;1697           }
;;;1698           Hex2Reg(pCurve->Eorder, crpt->ECC_N);
000030  4fbd              LDR      r7,|L12.808|
000032  f60411b8          ADD      r1,r4,#0x9b8
000036  9149              STR      r1,[sp,#0x124]
000038  6838              LDR      r0,[r7,#0]  ; pCurve
00003a  f5007040          ADD      r0,r0,#0x300
00003e  f7fffffe          BL       Hex2Reg
;;;1699   
;;;1700           /*  3-(2) Write 0x1 to Y1 registers */
;;;1701           for (i = 0; i < 18; i++)
000042  2000              MOVS     r0,#0
                  |L12.68|
;;;1702           {
;;;1703               crpt->ECC_Y1[i] = 0UL;
000044  eb040180          ADD      r1,r4,r0,LSL #2
000048  f8c15850          STR      r5,[r1,#0x850]
00004c  1c40              ADDS     r0,r0,#1
00004e  2812              CMP      r0,#0x12              ;1701
000050  dbf8              BLT      |L12.68|
;;;1704           }
;;;1705           crpt->ECC_Y1[0] = 0x1UL;
000052  2001              MOVS     r0,#1
000054  f8c40850          STR      r0,[r4,#0x850]
;;;1706   
;;;1707           /*  3-(3) Write s to X1 registers */
;;;1708           for (i = 0; i < 18; i++)
000058  2000              MOVS     r0,#0
                  |L12.90|
;;;1709           {
;;;1710               crpt->ECC_X1[i] = 0UL;
00005a  eb040180          ADD      r1,r4,r0,LSL #2
00005e  f8c15808          STR      r5,[r1,#0x808]
000062  1c40              ADDS     r0,r0,#1
000064  2812              CMP      r0,#0x12              ;1708
000066  dbf8              BLT      |L12.90|
;;;1711           }
;;;1712           Hex2Reg(S, crpt->ECC_X1);
000068  f6040108          ADD      r1,r4,#0x808
00006c  4630              MOV      r0,r6
00006e  9148              STR      r1,[sp,#0x120]
000070  f7fffffe          BL       Hex2Reg
;;;1713   
;;;1714           run_ecc_codec(crpt, ECCOP_MODULE | MODOP_DIV);
000074  f44f7100          MOV      r1,#0x200
000078  4620              MOV      r0,r4
00007a  f7fffffe          BL       run_ecc_codec
;;;1715   
;;;1716           /*  3-(9) Read X1 registers to get w */
;;;1717           for (i = 0; i < 18; i++)
00007e  2000              MOVS     r0,#0
000080  ae12              ADD      r6,sp,#0x48           ;1663
                  |L12.130|
;;;1718           {
;;;1719               temp_result2[i] = crpt->ECC_X1[i];
000082  eb040180          ADD      r1,r4,r0,LSL #2
000086  f8d11808          LDR      r1,[r1,#0x808]
00008a  f8461020          STR      r1,[r6,r0,LSL #2]
00008e  1c40              ADDS     r0,r0,#1
000090  2812              CMP      r0,#0x12              ;1717
000092  dbf6              BLT      |L12.130|
;;;1720           }
;;;1721   
;;;1722   #if ENABLE_DEBUG
;;;1723           CRPT_DBGMSG("e = %s\n", message);
;;;1724           Reg2Hex(pCurve->Echar, temp_result2, temp_hex_str);
;;;1725           CRPT_DBGMSG("w = %s\n", temp_hex_str);
;;;1726           CRPT_DBGMSG("o = %s (order)\n", pCurve->Eorder);
;;;1727   #endif
;;;1728   
;;;1729           /*
;;;1730            *   4. Compute u1 = e กั w (mod n) and u2 = r กั w (mod n)
;;;1731            *      (1) Write the curve order and curve length to N ,M registers
;;;1732            *      (2) Write e, w to X1, Y1 registers
;;;1733            *      (3) Set ECCOP(CRPT_ECC_CTL[10:9]) to 01
;;;1734            *      (4) Set MOPOP(CRPT_ECC_CTL[12:11]) to 01
;;;1735            *      (5) Set START(CRPT_ECC_CTL[0]) to 1
;;;1736            *      (6) Wait for BUSY(CRPT_ECC_STS[0]) be cleared
;;;1737            *      (7) Read X1 registers to get u1
;;;1738            *      (8) Write the curve order and curve length to N ,M registers
;;;1739            *      (9) Write r, w to X1, Y1 registers
;;;1740            *      (10) Set ECCOP(CRPT_ECC_CTL[10:9]) to 01
;;;1741            *      (11) Set MOPOP(CRPT_ECC_CTL[12:11]) to 01
;;;1742            *      (12) Set START(CRPT_ECC_CTL[0]) to 1
;;;1743            *      (13) Wait for BUSY(CRPT_ECC_STS[0]) be cleared
;;;1744            *      (14) Read X1 registers to get u2
;;;1745            */
;;;1746   
;;;1747           /*  4-(1) Write the curve order and curve length to N ,M registers */
;;;1748           for (i = 0; i < 18; i++)
000094  2000              MOVS     r0,#0
                  |L12.150|
;;;1749           {
;;;1750               crpt->ECC_N[i] = 0UL;
000096  eb040180          ADD      r1,r4,r0,LSL #2
00009a  f8c159b8          STR      r5,[r1,#0x9b8]
00009e  1c40              ADDS     r0,r0,#1
0000a0  2812              CMP      r0,#0x12              ;1748
0000a2  dbf8              BLT      |L12.150|
;;;1751           }
;;;1752           Hex2Reg(pCurve->Eorder, crpt->ECC_N);
0000a4  6838              LDR      r0,[r7,#0]  ; pCurve
0000a6  46b8              MOV      r8,r7
0000a8  9949              LDR      r1,[sp,#0x124]
0000aa  f5007040          ADD      r0,r0,#0x300
0000ae  f7fffffe          BL       Hex2Reg
;;;1753   
;;;1754           /* 4-(2) Write e, w to X1, Y1 registers */
;;;1755           for (i = 0; i < 18; i++)
0000b2  2000              MOVS     r0,#0
                  |L12.180|
;;;1756           {
;;;1757               crpt->ECC_X1[i] = 0UL;
0000b4  eb040180          ADD      r1,r4,r0,LSL #2
0000b8  f8c15808          STR      r5,[r1,#0x808]
0000bc  1c40              ADDS     r0,r0,#1
0000be  2812              CMP      r0,#0x12              ;1755
0000c0  dbf8              BLT      |L12.180|
;;;1758           }
;;;1759           Hex2Reg(message, crpt->ECC_X1);
0000c2  4648              MOV      r0,r9
0000c4  9948              LDR      r1,[sp,#0x120]
0000c6  f7fffffe          BL       Hex2Reg
;;;1760   
;;;1761           for (i = 0; i < 18; i++)
0000ca  2000              MOVS     r0,#0
                  |L12.204|
;;;1762           {
;;;1763               crpt->ECC_Y1[i] = temp_result2[i];
0000cc  eb040280          ADD      r2,r4,r0,LSL #2
0000d0  f8561020          LDR      r1,[r6,r0,LSL #2]
0000d4  f8c21850          STR      r1,[r2,#0x850]
0000d8  1c40              ADDS     r0,r0,#1
0000da  2812              CMP      r0,#0x12              ;1761
0000dc  dbf6              BLT      |L12.204|
;;;1764           }
;;;1765   
;;;1766           run_ecc_codec(crpt, ECCOP_MODULE | MODOP_MUL);
0000de  f44f6920          MOV      r9,#0xa00
0000e2  4649              MOV      r1,r9
0000e4  4620              MOV      r0,r4
0000e6  f7fffffe          BL       run_ecc_codec
;;;1767   
;;;1768           /*  4-(7) Read X1 registers to get u1 */
;;;1769           for (i = 0; i < 18; i++)
0000ea  2000              MOVS     r0,#0
0000ec  466f              MOV      r7,sp                 ;1663
                  |L12.238|
;;;1770           {
;;;1771               temp_result1[i] = crpt->ECC_X1[i];
0000ee  eb040180          ADD      r1,r4,r0,LSL #2
0000f2  f8d11808          LDR      r1,[r1,#0x808]
0000f6  f8471020          STR      r1,[r7,r0,LSL #2]
0000fa  1c40              ADDS     r0,r0,#1
0000fc  2812              CMP      r0,#0x12              ;1769
0000fe  dbf6              BLT      |L12.238|
;;;1772           }
;;;1773   
;;;1774   #if ENABLE_DEBUG
;;;1775           Reg2Hex(pCurve->Echar, temp_result1, temp_hex_str);
;;;1776           CRPT_DBGMSG("u1 = %s\n", temp_hex_str);
;;;1777   #endif
;;;1778   
;;;1779           /*  4-(8) Write the curve order and curve length to N ,M registers */
;;;1780           for (i = 0; i < 18; i++)
000100  2000              MOVS     r0,#0
                  |L12.258|
;;;1781           {
;;;1782               crpt->ECC_N[i] = 0UL;
000102  eb040180          ADD      r1,r4,r0,LSL #2
000106  f8c159b8          STR      r5,[r1,#0x9b8]
00010a  1c40              ADDS     r0,r0,#1
00010c  2812              CMP      r0,#0x12              ;1780
00010e  dbf8              BLT      |L12.258|
;;;1783           }
;;;1784           Hex2Reg(pCurve->Eorder, crpt->ECC_N);
000110  f8d80000          LDR      r0,[r8,#0]  ; pCurve
000114  46c3              MOV      r11,r8
000116  9949              LDR      r1,[sp,#0x124]
000118  f5007040          ADD      r0,r0,#0x300
00011c  f7fffffe          BL       Hex2Reg
;;;1785   
;;;1786           /* 4-(9) Write r, w to X1, Y1 registers */
;;;1787           for (i = 0; i < 18; i++)
000120  2000              MOVS     r0,#0
                  |L12.290|
;;;1788           {
;;;1789               crpt->ECC_X1[i] = 0UL;
000122  eb040180          ADD      r1,r4,r0,LSL #2
000126  f8c15808          STR      r5,[r1,#0x808]
00012a  1c40              ADDS     r0,r0,#1
00012c  2812              CMP      r0,#0x12              ;1787
00012e  dbf8              BLT      |L12.290|
;;;1790           }
;;;1791           Hex2Reg(R, crpt->ECC_X1);
000130  9948              LDR      r1,[sp,#0x120]
000132  9859              LDR      r0,[sp,#0x164]
000134  f7fffffe          BL       Hex2Reg
;;;1792   
;;;1793           for (i = 0; i < 18; i++)
000138  2000              MOVS     r0,#0
                  |L12.314|
;;;1794           {
;;;1795               crpt->ECC_Y1[i] = temp_result2[i];
00013a  eb040280          ADD      r2,r4,r0,LSL #2
00013e  f8561020          LDR      r1,[r6,r0,LSL #2]
000142  f8c21850          STR      r1,[r2,#0x850]
000146  1c40              ADDS     r0,r0,#1
000148  2812              CMP      r0,#0x12              ;1793
00014a  dbf6              BLT      |L12.314|
;;;1796           }
;;;1797   
;;;1798           run_ecc_codec(crpt, ECCOP_MODULE | MODOP_MUL);
00014c  4649              MOV      r1,r9
00014e  4620              MOV      r0,r4
000150  f7fffffe          BL       run_ecc_codec
;;;1799   
;;;1800           /*  4-(14) Read X1 registers to get u2 */
;;;1801           for (i = 0; i < 18; i++)
000154  2000              MOVS     r0,#0
                  |L12.342|
;;;1802           {
;;;1803               temp_result2[i] = crpt->ECC_X1[i];
000156  eb040180          ADD      r1,r4,r0,LSL #2
00015a  f8d11808          LDR      r1,[r1,#0x808]
00015e  f8461020          STR      r1,[r6,r0,LSL #2]
000162  1c40              ADDS     r0,r0,#1
000164  2812              CMP      r0,#0x12              ;1801
000166  dbf6              BLT      |L12.342|
;;;1804           }
;;;1805   
;;;1806   #if ENABLE_DEBUG
;;;1807           Reg2Hex(pCurve->Echar, temp_result2, temp_hex_str);
;;;1808           CRPT_DBGMSG("u2 = %s\n", temp_hex_str);
;;;1809   #endif
;;;1810   
;;;1811           /*
;;;1812            *   5. Compute Xกฆ (x1กฆ, y1กฆ) = u1 * G + u2 * Q
;;;1813            *      (1) Write the curve parameter A, B, N, and curve length M to corresponding registers
;;;1814            *      (2) Write the point G(x, y) to X1, Y1 registers
;;;1815            *      (3) Write u1 to K registers
;;;1816            *      (4) Set ECCOP(CRPT_ECC_CTL[10:9]) to 00
;;;1817            *      (5) Set START(CRPT_ECC_CTL[0]) to 1
;;;1818            *      (6) Wait for BUSY(CRPT_ECC_STS[0]) be cleared
;;;1819            *      (7) Read X1, Y1 registers to get u1*G
;;;1820            *      (8) Write the curve parameter A, B, N, and curve length M to corresponding registers
;;;1821            *      (9) Write the public key Q(x,y) to X1, Y1 registers
;;;1822            *      (10) Write u2 to K registers
;;;1823            *      (11) Set ECCOP(CRPT_ECC_CTL[10:9]) to 00
;;;1824            *      (12) Set START(CRPT_ECC_CTL[0]) to 1
;;;1825            *      (13) Wait for BUSY(CRPT_ECC_STS[0]) be cleared
;;;1826            *      (14) Write the curve parameter A, B, N, and curve length M to corresponding registers
;;;1827            *      (15) Write the result data u1*G to X2, Y2 registers
;;;1828            *      (16) Set ECCOP(CRPT_ECC_CTL[10:9]) to 10
;;;1829            *      (17) Set START(CRPT_ECC_CTL[0]) to 1
;;;1830            *      (18) Wait for BUSY(CRPT_ECC_STS[0]) be cleared
;;;1831            *      (19) Read X1, Y1 registers to get Xกฆ(x1กฆ, y1กฆ)
;;;1832            *      (20) Write the curve order and curve length to N ,M registers
;;;1833            *      (21) Write x1กฆ to X1 registers
;;;1834            *      (22) Write 0x0 to Y1 registers
;;;1835            *      (23) Set ECCOP(CRPT_ECC_CTL[10:9]) to 01
;;;1836            *      (24) Set MOPOP(CRPT_ECC_CTL[12:11]) to 10
;;;1837            *      (25) Set START(CRPT_ECC_CTL[0]) to 1
;;;1838            *      (26) Wait for BUSY(CRPT_ECC_STS[0]) be cleared
;;;1839            *      (27) Read X1 registers to get x1กฆ (mod n)
;;;1840            *
;;;1841            *   6. The signature is valid if x1กฆ = r, otherwise it is invalid
;;;1842            */
;;;1843   
;;;1844           /*
;;;1845            *  (1) Write the curve parameter A, B, N, and curve length M to corresponding registers
;;;1846            *  (2) Write the point G(x, y) to X1, Y1 registers
;;;1847            */
;;;1848           ecc_init_curve(crpt, ecc_curve);
000168  4620              MOV      r0,r4
00016a  994c              LDR      r1,[sp,#0x130]
00016c  f7fffffe          BL       ecc_init_curve
;;;1849   
;;;1850           /* (3) Write u1 to K registers */
;;;1851           for (i = 0; i < 18; i++)
000170  2000              MOVS     r0,#0
                  |L12.370|
;;;1852           {
;;;1853               crpt->ECC_K[i] = temp_result1[i];
000172  eb040280          ADD      r2,r4,r0,LSL #2
000176  f8571020          LDR      r1,[r7,r0,LSL #2]
00017a  f8c21a00          STR      r1,[r2,#0xa00]
00017e  1c40              ADDS     r0,r0,#1
000180  2812              CMP      r0,#0x12              ;1851
000182  dbf6              BLT      |L12.370|
;;;1854           }
;;;1855   
;;;1856           run_ecc_codec(crpt, ECCOP_POINT_MUL);
000184  2100              MOVS     r1,#0
000186  4620              MOV      r0,r4
000188  f7fffffe          BL       run_ecc_codec
;;;1857   
;;;1858           /* (7) Read X1, Y1 registers to get u1*G */
;;;1859           for (i = 0; i < 18; i++)
00018c  2000              MOVS     r0,#0
00018e  aa36              ADD      r2,sp,#0xd8           ;1664
000190  ab24              ADD      r3,sp,#0x90           ;1664
                  |L12.402|
;;;1860           {
;;;1861               temp_x[i] = crpt->ECC_X1[i];
000192  eb040180          ADD      r1,r4,r0,LSL #2
000196  f8d1c808          LDR      r12,[r1,#0x808]
00019a  f843c020          STR      r12,[r3,r0,LSL #2]
;;;1862               temp_y[i] = crpt->ECC_Y1[i];
00019e  f8d1c850          LDR      r12,[r1,#0x850]
0001a2  4699              MOV      r9,r3                 ;1861
0001a4  f842c020          STR      r12,[r2,r0,LSL #2]
0001a8  1c40              ADDS     r0,r0,#1
0001aa  4690              MOV      r8,r2
0001ac  2812              CMP      r0,#0x12              ;1859
0001ae  dbf0              BLT      |L12.402|
;;;1863           }
;;;1864   
;;;1865   #if ENABLE_DEBUG
;;;1866           Reg2Hex(pCurve->Echar, temp_x, temp_hex_str);
;;;1867           CRPT_DBGMSG("5-(7) u1*G, x = %s\n", temp_hex_str);
;;;1868           Reg2Hex(pCurve->Echar, temp_y, temp_hex_str);
;;;1869           CRPT_DBGMSG("5-(7) u1*G, y = %s\n", temp_hex_str);
;;;1870   #endif
;;;1871   
;;;1872           /* (8) Write the curve parameter A, B, N, and curve length M to corresponding registers */
;;;1873           ecc_init_curve(crpt, ecc_curve);
0001b0  4620              MOV      r0,r4
0001b2  994c              LDR      r1,[sp,#0x130]
0001b4  f7fffffe          BL       ecc_init_curve
;;;1874   
;;;1875           /* (9) Write the public key Q(x,y) to X1, Y1 registers */
;;;1876           for (i = 0; i < 18; i++)
0001b8  2000              MOVS     r0,#0
                  |L12.442|
;;;1877           {
;;;1878               crpt->ECC_X1[i] = 0UL;
0001ba  eb040180          ADD      r1,r4,r0,LSL #2
0001be  f8c15808          STR      r5,[r1,#0x808]
;;;1879               crpt->ECC_Y1[i] = 0UL;
0001c2  f8c15850          STR      r5,[r1,#0x850]
0001c6  1c40              ADDS     r0,r0,#1
0001c8  2812              CMP      r0,#0x12              ;1876
0001ca  dbf6              BLT      |L12.442|
;;;1880           }
;;;1881   
;;;1882           Hex2Reg(public_k1, crpt->ECC_X1);
0001cc  9948              LDR      r1,[sp,#0x120]
0001ce  984e              LDR      r0,[sp,#0x138]
0001d0  f7fffffe          BL       Hex2Reg
;;;1883           Hex2Reg(public_k2, crpt->ECC_Y1);
0001d4  f5046105          ADD      r1,r4,#0x850
0001d8  9858              LDR      r0,[sp,#0x160]
0001da  f7fffffe          BL       Hex2Reg
;;;1884   
;;;1885           /* (10) Write u2 to K registers */
;;;1886           for (i = 0; i < 18; i++)
0001de  2000              MOVS     r0,#0
                  |L12.480|
;;;1887           {
;;;1888               crpt->ECC_K[i] = temp_result2[i];
0001e0  eb040280          ADD      r2,r4,r0,LSL #2
0001e4  f8561020          LDR      r1,[r6,r0,LSL #2]
0001e8  f8c21a00          STR      r1,[r2,#0xa00]
0001ec  1c40              ADDS     r0,r0,#1
0001ee  2812              CMP      r0,#0x12              ;1886
0001f0  dbf6              BLT      |L12.480|
;;;1889           }
;;;1890   
;;;1891           run_ecc_codec(crpt, ECCOP_POINT_MUL);
0001f2  2100              MOVS     r1,#0
0001f4  4620              MOV      r0,r4
0001f6  f7fffffe          BL       run_ecc_codec
;;;1892   
;;;1893           for (i = 0; i < 18; i++)
0001fa  2000              MOVS     r0,#0
                  |L12.508|
;;;1894           {
;;;1895               temp_result1[i] = crpt->ECC_X1[i];
0001fc  eb040180          ADD      r1,r4,r0,LSL #2
000200  f8d12808          LDR      r2,[r1,#0x808]
000204  f8472020          STR      r2,[r7,r0,LSL #2]
;;;1896               temp_result2[i] = crpt->ECC_Y1[i];
000208  f8d11850          LDR      r1,[r1,#0x850]
00020c  f8461020          STR      r1,[r6,r0,LSL #2]
000210  1c40              ADDS     r0,r0,#1
000212  2812              CMP      r0,#0x12              ;1893
000214  dbf2              BLT      |L12.508|
;;;1897           }
;;;1898   
;;;1899   #if ENABLE_DEBUG
;;;1900           Reg2Hex(pCurve->Echar, temp_result1, temp_hex_str);
;;;1901           CRPT_DBGMSG("5-(13) u2*Q, x = %s\n", temp_hex_str);
;;;1902           Reg2Hex(pCurve->Echar, temp_result2, temp_hex_str);
;;;1903           CRPT_DBGMSG("5-(13) u2*Q, y = %s\n", temp_hex_str);
;;;1904   #endif
;;;1905   
;;;1906           /* (14) Write the curve parameter A, B, N, and curve length M to corresponding registers */
;;;1907           ecc_init_curve(crpt, ecc_curve);
000216  4620              MOV      r0,r4
000218  994c              LDR      r1,[sp,#0x130]
00021a  f7fffffe          BL       ecc_init_curve
;;;1908   
;;;1909           /* Write the result data u2*Q to X1, Y1 registers */
;;;1910           for (i = 0; i < 18; i++)
00021e  2000              MOVS     r0,#0
                  |L12.544|
;;;1911           {
;;;1912               crpt->ECC_X1[i] = temp_result1[i];
000220  eb040180          ADD      r1,r4,r0,LSL #2
000224  f8572020          LDR      r2,[r7,r0,LSL #2]
000228  f8c12808          STR      r2,[r1,#0x808]
;;;1913               crpt->ECC_Y1[i] = temp_result2[i];
00022c  f8562020          LDR      r2,[r6,r0,LSL #2]
000230  f8c12850          STR      r2,[r1,#0x850]
000234  1c40              ADDS     r0,r0,#1
000236  2812              CMP      r0,#0x12              ;1910
000238  dbf2              BLT      |L12.544|
;;;1914           }
;;;1915   
;;;1916           /* (15) Write the result data u1*G to X2, Y2 registers */
;;;1917           for (i = 0; i < 18; i++)
00023a  2000              MOVS     r0,#0
00023c  4647              MOV      r7,r8                 ;1664
00023e  464e              MOV      r6,r9                 ;1664
                  |L12.576|
;;;1918           {
;;;1919               crpt->ECC_X2[i] = temp_x[i];
000240  eb040180          ADD      r1,r4,r0,LSL #2
000244  f8562020          LDR      r2,[r6,r0,LSL #2]
000248  f8c12898          STR      r2,[r1,#0x898]
;;;1920               crpt->ECC_Y2[i] = temp_y[i];
00024c  f8572020          LDR      r2,[r7,r0,LSL #2]
000250  f8c128e0          STR      r2,[r1,#0x8e0]
000254  1c40              ADDS     r0,r0,#1
000256  2812              CMP      r0,#0x12              ;1917
000258  dbf2              BLT      |L12.576|
;;;1921           }
;;;1922   
;;;1923           run_ecc_codec(crpt, ECCOP_POINT_ADD);
00025a  f44f6180          MOV      r1,#0x400
00025e  4620              MOV      r0,r4
000260  f7fffffe          BL       run_ecc_codec
;;;1924   
;;;1925           /* (19) Read X1, Y1 registers to get Xกฆ(x1กฆ, y1กฆ) */
;;;1926           for (i = 0; i < 18; i++)
000264  2000              MOVS     r0,#0
                  |L12.614|
;;;1927           {
;;;1928               temp_x[i] = crpt->ECC_X1[i];
000266  eb040180          ADD      r1,r4,r0,LSL #2
00026a  f8d12808          LDR      r2,[r1,#0x808]
00026e  f8462020          STR      r2,[r6,r0,LSL #2]
;;;1929               temp_y[i] = crpt->ECC_Y1[i];
000272  f8d11850          LDR      r1,[r1,#0x850]
000276  f8471020          STR      r1,[r7,r0,LSL #2]
00027a  1c40              ADDS     r0,r0,#1
00027c  2812              CMP      r0,#0x12              ;1926
00027e  dbf2              BLT      |L12.614|
;;;1930           }
;;;1931   
;;;1932   #if ENABLE_DEBUG
;;;1933           Reg2Hex(pCurve->Echar, temp_x, temp_hex_str);
;;;1934           CRPT_DBGMSG("5-(19) x' = %s\n", temp_hex_str);
;;;1935           Reg2Hex(pCurve->Echar, temp_y, temp_hex_str);
;;;1936           CRPT_DBGMSG("5-(19) y' = %s\n", temp_hex_str);
;;;1937   #endif
;;;1938   
;;;1939           /*  (20) Write the curve order and curve length to N ,M registers */
;;;1940           for (i = 0; i < 18; i++)
000280  2000              MOVS     r0,#0
                  |L12.642|
;;;1941           {
;;;1942               crpt->ECC_N[i] = 0UL;
000282  eb040180          ADD      r1,r4,r0,LSL #2
000286  f8c159b8          STR      r5,[r1,#0x9b8]
00028a  1c40              ADDS     r0,r0,#1
00028c  2812              CMP      r0,#0x12              ;1940
00028e  dbf8              BLT      |L12.642|
;;;1943           }
;;;1944           Hex2Reg(pCurve->Eorder, crpt->ECC_N);
000290  f8db0000          LDR      r0,[r11,#0]  ; pCurve
000294  465f              MOV      r7,r11
000296  9949              LDR      r1,[sp,#0x124]
000298  f5007040          ADD      r0,r0,#0x300
00029c  f7fffffe          BL       Hex2Reg
;;;1945   
;;;1946           /*
;;;1947            *  (21) Write x1กฆ to X1 registers
;;;1948            *  (22) Write 0x0 to Y1 registers
;;;1949            */
;;;1950           for (i = 0; i < 18; i++)
0002a0  2000              MOVS     r0,#0
                  |L12.674|
;;;1951           {
;;;1952               crpt->ECC_X1[i] = temp_x[i];
0002a2  eb040180          ADD      r1,r4,r0,LSL #2
0002a6  f8562020          LDR      r2,[r6,r0,LSL #2]
0002aa  f8c12808          STR      r2,[r1,#0x808]
;;;1953               crpt->ECC_Y1[i] = 0UL;
0002ae  f8c15850          STR      r5,[r1,#0x850]
0002b2  1c40              ADDS     r0,r0,#1
0002b4  2812              CMP      r0,#0x12              ;1950
0002b6  dbf4              BLT      |L12.674|
;;;1954           }
;;;1955   
;;;1956   #if ENABLE_DEBUG
;;;1957           Reg2Hex(pCurve->Echar, crpt->ECC_X1, temp_hex_str);
;;;1958           CRPT_DBGMSG("5-(21) x' = %s\n", temp_hex_str);
;;;1959           Reg2Hex(pCurve->Echar, crpt->ECC_Y1, temp_hex_str);
;;;1960           CRPT_DBGMSG("5-(22) y' = %s\n", temp_hex_str);
;;;1961   #endif
;;;1962   
;;;1963           run_ecc_codec(crpt, ECCOP_MODULE | MODOP_ADD);
0002b8  f44f5190          MOV      r1,#0x1200
0002bc  4620              MOV      r0,r4
0002be  f7fffffe          BL       run_ecc_codec
;;;1964   
;;;1965           /*  (27) Read X1 registers to get x1กฆ (mod n) */
;;;1966           Reg2Hex(pCurve->Echar, crpt->ECC_X1, temp_hex_str);
0002c2  6838              LDR      r0,[r7,#0]  ; pCurve
0002c4  4a19              LDR      r2,|L12.812|
0002c6  9948              LDR      r1,[sp,#0x120]
0002c8  6840              LDR      r0,[r0,#4]
0002ca  f7fffffe          BL       Reg2Hex
;;;1967           CRPT_DBGMSG("5-(27) x1' (mod n) = %s\n", temp_hex_str);
;;;1968   
;;;1969           /* 6. The signature is valid if x1กฆ = r, otherwise it is invalid */
;;;1970   
;;;1971           /* Compare with test pattern to check if r is correct or not */
;;;1972           if (ecc_strcmp(temp_hex_str, R) != 0)
0002ce  4917              LDR      r1,|L12.812|
0002d0  9859              LDR      r0,[sp,#0x164]
0002d2  e000              B        |L12.726|
                  |L12.724|
0002d4  1c49              ADDS     r1,r1,#1
                  |L12.726|
0002d6  780a              LDRB     r2,[r1,#0]
0002d8  2a30              CMP      r2,#0x30
0002da  d0fb              BEQ      |L12.724|
0002dc  e000              B        |L12.736|
                  |L12.734|
0002de  1c40              ADDS     r0,r0,#1
                  |L12.736|
0002e0  7802              LDRB     r2,[r0,#0]
0002e2  2a30              CMP      r2,#0x30
0002e4  d0fb              BEQ      |L12.734|
0002e6  e014              B        |L12.786|
                  |L12.744|
0002e8  f1a20341          SUB      r3,r2,#0x41
0002ec  2b19              CMP      r3,#0x19
0002ee  d801              BHI      |L12.756|
0002f0  3220              ADDS     r2,r2,#0x20
0002f2  b2d2              UXTB     r2,r2
                  |L12.756|
0002f4  7803              LDRB     r3,[r0,#0]
0002f6  f1a30441          SUB      r4,r3,#0x41
0002fa  2c19              CMP      r4,#0x19
0002fc  d801              BHI      |L12.770|
0002fe  3320              ADDS     r3,r3,#0x20
000300  b2db              UXTB     r3,r3
                  |L12.770|
000302  429a              CMP      r2,r3
000304  d003              BEQ      |L12.782|
;;;1973           {
;;;1974               CRPT_DBGMSG("x1' (mod n) != R Test filed!!\n");
;;;1975               CRPT_DBGMSG("Signature R [%s] is not matched with expected R [%s]!\n", temp_hex_str, R);
;;;1976               ret = -2;
000306  f06f0001          MVN      r0,#1
                  |L12.778|
00030a  4682              MOV      r10,r0                ;1688
00030c  e007              B        |L12.798|
                  |L12.782|
00030e  1c40              ADDS     r0,r0,#1              ;1688
000310  1c49              ADDS     r1,r1,#1              ;1688
                  |L12.786|
000312  780a              LDRB     r2,[r1,#0]            ;1688
000314  2a00              CMP      r2,#0                 ;1688
000316  d1e7              BNE      |L12.744|
000318  7803              LDRB     r3,[r0,#0]            ;1688
00031a  2b00              CMP      r3,#0                 ;1688
00031c  d1e4              BNE      |L12.744|
                  |L12.798|
;;;1977           }
;;;1978       }  /* ret == 0 */
;;;1979   
;;;1980       return ret;
;;;1981   }
00031e  b04f              ADD      sp,sp,#0x13c
000320  4650              MOV      r0,r10                ;1980
000322  e8bd8ff0          POP      {r4-r11,pc}
;;;1982   
                          ENDP

000326  0000              DCW      0x0000
                  |L12.808|
                          DCD      ||.data||
                  |L12.812|
                          DCD      ||.bss||+0x3e4

                          AREA ||i.Hex2Reg||, CODE, READONLY, ALIGN=1

                  Hex2Reg PROC
;;;926    
;;;927    static void Hex2Reg(char input[], uint32_t volatile reg[])
000000  e92d47f0          PUSH     {r4-r10,lr}
;;;928    {
000004  4689              MOV      r9,r1
000006  4680              MOV      r8,r0
;;;929        char      hex;
;;;930        int       si, ri;
;;;931        uint32_t  i, val32;
;;;932    
;;;933        si = (int)strlen(input) - 1;
000008  f7fffffe          BL       strlen
00000c  1e44              SUBS     r4,r0,#1
;;;934        ri = 0;
00000e  2700              MOVS     r7,#0
;;;935    
;;;936        while (si >= 0)
000010  e012              B        |L13.56|
                  |L13.18|
;;;937        {
;;;938            val32 = 0UL;
000012  2600              MOVS     r6,#0
;;;939            for (i = 0UL; (i < 8UL) && (si >= 0); i++)
000014  4635              MOV      r5,r6
000016  e00a              B        |L13.46|
                  |L13.24|
;;;940            {
;;;941                hex = ch2hex(input[si]);
000018  f8180004          LDRB     r0,[r8,r4]
00001c  f7fffffe          BL       ch2hex
;;;942                val32 |= (uint32_t)hex << (i * 4UL);
000020  00a9              LSLS     r1,r5,#2
000022  4088              LSLS     r0,r0,r1
000024  4306              ORRS     r6,r6,r0
000026  1e64              SUBS     r4,r4,#1
000028  1c6d              ADDS     r5,r5,#1
00002a  2d08              CMP      r5,#8                 ;939
00002c  d201              BCS      |L13.50|
                  |L13.46|
00002e  2c00              CMP      r4,#0                 ;939
000030  daf2              BGE      |L13.24|
                  |L13.50|
;;;943                si--;
;;;944            }
;;;945            reg[ri++] = val32;
000032  f8496027          STR      r6,[r9,r7,LSL #2]
000036  1c7f              ADDS     r7,r7,#1
                  |L13.56|
000038  2c00              CMP      r4,#0                 ;936
00003a  daea              BGE      |L13.18|
;;;946        }
;;;947    }
00003c  e8bd87f0          POP      {r4-r10,pc}
;;;948    
                          ENDP


                          AREA ||i.Hex2RegEx||, CODE, READONLY, ALIGN=1

                  Hex2RegEx PROC
;;;948    
;;;949    static void Hex2RegEx(char input[], uint32_t volatile reg[], int shift)
000000  e92d5ff0          PUSH     {r4-r12,lr}
;;;950    {
000004  4692              MOV      r10,r2
000006  4689              MOV      r9,r1
000008  4683              MOV      r11,r0
;;;951        uint32_t  hex, carry;
;;;952        int       si, ri;
;;;953        uint32_t  i, val32;
;;;954    
;;;955        si = (int)strlen(input) - 1;
00000a  f7fffffe          BL       strlen
;;;956        ri = 0L;
00000e  f04f0800          MOV      r8,#0
000012  1e44              SUBS     r4,r0,#1              ;955
;;;957        carry = 0UL;
000014  4647              MOV      r7,r8
;;;958        while (si >= 0)
000016  e01a              B        |L14.78|
                  |L14.24|
;;;959        {
;;;960            val32 = 0UL;
000018  2600              MOVS     r6,#0
;;;961            for (i = 0UL; (i < 8UL) && (si >= 0L); i++)
00001a  4635              MOV      r5,r6
00001c  e011              B        |L14.66|
                  |L14.30|
;;;962            {
;;;963                hex = (uint32_t)ch2hex(input[si]);
00001e  f81b0004          LDRB     r0,[r11,r4]
000022  f7fffffe          BL       ch2hex
;;;964                hex <<= shift;
000026  fa00f00a          LSL      r0,r0,r10
;;;965    
;;;966                val32 |= (uint32_t)((hex & 0xFUL) | carry) << (i * 4UL);
00002a  f000010f          AND      r1,r0,#0xf
00002e  4339              ORRS     r1,r1,r7
000030  00aa              LSLS     r2,r5,#2
000032  4091              LSLS     r1,r1,r2
000034  430e              ORRS     r6,r6,r1
;;;967                carry = (hex >> 4UL) & 0xFUL;
000036  1e64              SUBS     r4,r4,#1
000038  1c6d              ADDS     r5,r5,#1
00003a  f3c01703          UBFX     r7,r0,#4,#4
00003e  2d08              CMP      r5,#8                 ;961
000040  d201              BCS      |L14.70|
                  |L14.66|
000042  2c00              CMP      r4,#0                 ;961
000044  daeb              BGE      |L14.30|
                  |L14.70|
;;;968                si--;
;;;969            }
;;;970            reg[ri++] = val32;
000046  f8496028          STR      r6,[r9,r8,LSL #2]
00004a  f1080801          ADD      r8,r8,#1
                  |L14.78|
00004e  2c00              CMP      r4,#0                 ;958
000050  dae2              BGE      |L14.24|
;;;971        }
;;;972        if (carry != 0UL)
000052  2f00              CMP      r7,#0
000054  d001              BEQ      |L14.90|
;;;973        {
;;;974            reg[ri] = carry;
000056  f8497028          STR      r7,[r9,r8,LSL #2]
                  |L14.90|
;;;975        }
;;;976    }
00005a  e8bd9ff0          POP      {r4-r12,pc}
;;;977    
                          ENDP


                          AREA ||i.PRNG_Open||, CODE, READONLY, ALIGN=1

                  PRNG_Open PROC
;;;69       */
;;;70     void PRNG_Open(CRPT_T *crpt, uint32_t u32KeySize, uint32_t u32SeedReload, uint32_t u32Seed)
000000  b102              CBZ      r2,|L15.4|
;;;71     {
;;;72         if (u32SeedReload)
;;;73         {
;;;74             crpt->PRNG_SEED = u32Seed;
000002  60c3              STR      r3,[r0,#0xc]
                  |L15.4|
;;;75         }
;;;76     
;;;77         crpt->PRNG_CTL =  (u32KeySize << CRPT_PRNG_CTL_KEYSZ_Pos) |
000004  0089              LSLS     r1,r1,#2
000006  ea410142          ORR      r1,r1,r2,LSL #1
00000a  6081              STR      r1,[r0,#8]
;;;78                           (u32SeedReload << CRPT_PRNG_CTL_SEEDRLD_Pos);
;;;79     }
00000c  4770              BX       lr
;;;80     
                          ENDP


                          AREA ||i.PRNG_Read||, CODE, READONLY, ALIGN=1

                  PRNG_Read PROC
;;;96       */
;;;97     void PRNG_Read(CRPT_T *crpt, uint32_t u32RandKey[])
000000  b510              PUSH     {r4,lr}
;;;98     {
;;;99         uint32_t  i, wcnt;
;;;100    
;;;101        wcnt = (((crpt->PRNG_CTL & CRPT_PRNG_CTL_KEYSZ_Msk) >> CRPT_PRNG_CTL_KEYSZ_Pos) + 1U) * 2U;
000002  6882              LDR      r2,[r0,#8]
000004  f3c20281          UBFX     r2,r2,#2,#2
000008  1c52              ADDS     r2,r2,#1
00000a  0053              LSLS     r3,r2,#1
;;;102    
;;;103        for (i = 0U; i < wcnt; i++)
00000c  2200              MOVS     r2,#0
00000e  e005              B        |L16.28|
                  |L16.16|
;;;104        {
;;;105            u32RandKey[i] = crpt->PRNG_KEY[i];
000010  eb000482          ADD      r4,r0,r2,LSL #2
000014  6924              LDR      r4,[r4,#0x10]
000016  f8414022          STR      r4,[r1,r2,LSL #2]
00001a  1c52              ADDS     r2,r2,#1
                  |L16.28|
00001c  429a              CMP      r2,r3                 ;103
00001e  d3f7              BCC      |L16.16|
;;;106        }
;;;107    
;;;108        crpt->PRNG_CTL &= ~CRPT_PRNG_CTL_SEEDRLD_Msk;
000020  6881              LDR      r1,[r0,#8]
000022  f0210102          BIC      r1,r1,#2
000026  6081              STR      r1,[r0,#8]
;;;109    }
000028  bd10              POP      {r4,pc}
;;;110    
                          ENDP


                          AREA ||i.PRNG_Start||, CODE, READONLY, ALIGN=1

                  PRNG_Start PROC
;;;85       */
;;;86     void PRNG_Start(CRPT_T *crpt)
000000  6881              LDR      r1,[r0,#8]
;;;87     {
;;;88         crpt->PRNG_CTL |= CRPT_PRNG_CTL_START_Msk;
000002  f0410101          ORR      r1,r1,#1
000006  6081              STR      r1,[r0,#8]
;;;89     }
000008  4770              BX       lr
;;;90     
                          ENDP


                          AREA ||i.Reg2Hex||, CODE, READONLY, ALIGN=2

                  Reg2Hex PROC
;;;991    
;;;992    static void Reg2Hex(int32_t count, uint32_t volatile reg[], char output[])
000000  b5f0              PUSH     {r4-r7,lr}
;;;993    {
;;;994        int32_t    idx, ri;
;;;995        uint32_t   i;
;;;996    
;;;997        output[count] = 0U;
000002  2300              MOVS     r3,#0
000004  5413              STRB     r3,[r2,r0]
;;;998        idx = count - 1;
;;;999    
;;;1000       for (ri = 0; idx >= 0; ri++)
000006  461c              MOV      r4,r3
000008  4e0b              LDR      r6,|L18.56|
00000a  1e40              SUBS     r0,r0,#1
00000c  e010              B        |L18.48|
                  |L18.14|
;;;1001       {
;;;1002           for (i = 0UL; (i < 8UL) && (idx >= 0); i++)
00000e  2300              MOVS     r3,#0
000010  e00b              B        |L18.42|
                  |L18.18|
;;;1003           {
;;;1004               output[idx] = get_Nth_nibble_char(reg[ri], i);
000012  f8515024          LDR      r5,[r1,r4,LSL #2]
000016  009f              LSLS     r7,r3,#2
000018  40fd              LSRS     r5,r5,r7
00001a  f005050f          AND      r5,r5,#0xf
00001e  1c5b              ADDS     r3,r3,#1
000020  5d75              LDRB     r5,[r6,r5]
000022  5415              STRB     r5,[r2,r0]
000024  1e40              SUBS     r0,r0,#1
000026  2b08              CMP      r3,#8                 ;1002
000028  d201              BCS      |L18.46|
                  |L18.42|
00002a  2800              CMP      r0,#0                 ;1002
00002c  daf1              BGE      |L18.18|
                  |L18.46|
00002e  1c64              ADDS     r4,r4,#1              ;1002
                  |L18.48|
000030  2800              CMP      r0,#0                 ;1000
000032  daec              BGE      |L18.14|
;;;1005               idx--;
;;;1006           }
;;;1007       }
;;;1008   }
000034  bdf0              POP      {r4-r7,pc}
;;;1009   
                          ENDP

000036  0000              DCW      0x0000
                  |L18.56|
                          DCD      ||.data||+0xc

                          AREA ||i.SHA_Open||, CODE, READONLY, ALIGN=1

                  SHA_Open PROC
;;;370      */
;;;371    void SHA_Open(CRPT_T *crpt, uint32_t u32OpMode, uint32_t u32SwapType, uint32_t hmac_key_len)
000000  0209              LSLS     r1,r1,#8
;;;372    {
;;;373        crpt->HMAC_CTL = (u32OpMode << CRPT_HMAC_CTL_OPMODE_Pos) |
000002  ea415182          ORR      r1,r1,r2,LSL #22
000006  f8c01300          STR      r1,[r0,#0x300]
00000a  2b00              CMP      r3,#0                 ;372
00000c  d007              BEQ      |L19.30|
;;;374                         (u32SwapType << CRPT_HMAC_CTL_OUTSWAP_Pos);
;;;375    
;;;376        if (hmac_key_len != 0UL)
;;;377        {
;;;378            crpt->HMAC_KEYCNT = hmac_key_len;
00000e  f8c03348          STR      r3,[r0,#0x348]
;;;379            crpt->HMAC_CTL |= CRPT_HMAC_CTL_HMACEN_Msk;
000012  f8d01300          LDR      r1,[r0,#0x300]
000016  f0410110          ORR      r1,r1,#0x10
00001a  f8c01300          STR      r1,[r0,#0x300]
                  |L19.30|
;;;380        }
;;;381    }
00001e  4770              BX       lr
;;;382    
                          ENDP


                          AREA ||i.SHA_Read||, CODE, READONLY, ALIGN=1

                  SHA_Read PROC
;;;416      */
;;;417    void SHA_Read(CRPT_T *crpt, uint32_t u32Digest[])
000000  b510              PUSH     {r4,lr}
;;;418    {
;;;419        uint32_t  i, wcnt, reg_addr;
;;;420    
;;;421        i = (crpt->HMAC_CTL & CRPT_HMAC_CTL_OPMODE_Msk) >> CRPT_HMAC_CTL_OPMODE_Pos;
000002  f8d02300          LDR      r2,[r0,#0x300]
000006  f3c22202          UBFX     r2,r2,#8,#3
00000a  b152              CBZ      r2,|L20.34|
;;;422    
;;;423        if (i == SHA_MODE_SHA1)
;;;424        {
;;;425            wcnt = 5UL;
;;;426        }
;;;427        else if (i == SHA_MODE_SHA224)
00000c  2a05              CMP      r2,#5
00000e  d00a              BEQ      |L20.38|
;;;428        {
;;;429            wcnt = 7UL;
;;;430        }
;;;431        else if (i == SHA_MODE_SHA256)
000010  2a04              CMP      r2,#4
000012  d00a              BEQ      |L20.42|
;;;432        {
;;;433            wcnt = 8UL;
;;;434        }
;;;435        else if (i == SHA_MODE_SHA384)
000014  2a07              CMP      r2,#7
000016  d00a              BEQ      |L20.46|
;;;436        {
;;;437            wcnt = 12UL;
;;;438        }
;;;439        else
;;;440        {
;;;441            /* SHA_MODE_SHA512 */
;;;442            wcnt = 16UL;
000018  2310              MOVS     r3,#0x10
                  |L20.26|
;;;443        }
;;;444    
;;;445        reg_addr = (uint32_t)&(crpt->HMAC_DGST[0]);
;;;446        for (i = 0UL; i < wcnt; i++)
00001a  2200              MOVS     r2,#0
00001c  f5007042          ADD      r0,r0,#0x308
000020  e00b              B        |L20.58|
                  |L20.34|
000022  2305              MOVS     r3,#5                 ;425
000024  e7f9              B        |L20.26|
                  |L20.38|
000026  2307              MOVS     r3,#7                 ;429
000028  e7f7              B        |L20.26|
                  |L20.42|
00002a  2308              MOVS     r3,#8                 ;433
00002c  e7f5              B        |L20.26|
                  |L20.46|
00002e  230c              MOVS     r3,#0xc               ;437
000030  e7f3              B        |L20.26|
                  |L20.50|
;;;447        {
;;;448            u32Digest[i] = inpw(reg_addr);
000032  c810              LDM      r0!,{r4}
000034  f8414022          STR      r4,[r1,r2,LSL #2]
000038  1c52              ADDS     r2,r2,#1
                  |L20.58|
00003a  429a              CMP      r2,r3                 ;446
00003c  d3f9              BCC      |L20.50|
;;;449            reg_addr += 4UL;
;;;450        }
;;;451    }
00003e  bd10              POP      {r4,pc}
;;;452    
                          ENDP


                          AREA ||i.SHA_SetDMATransfer||, CODE, READONLY, ALIGN=1

                  SHA_SetDMATransfer PROC
;;;404      */
;;;405    void SHA_SetDMATransfer(CRPT_T *crpt, uint32_t u32SrcAddr, uint32_t u32TransCnt)
000000  f8c0134c          STR      r1,[r0,#0x34c]
;;;406    {
;;;407        crpt->HMAC_SADDR = u32SrcAddr;
;;;408        crpt->HMAC_DMACNT = u32TransCnt;
000004  f8c02350          STR      r2,[r0,#0x350]
;;;409    }
000008  4770              BX       lr
;;;410    
                          ENDP


                          AREA ||i.SHA_Start||, CODE, READONLY, ALIGN=1

                  SHA_Start PROC
;;;391      */
;;;392    void SHA_Start(CRPT_T *crpt, uint32_t u32DMAMode)
000000  f8d02300          LDR      r2,[r0,#0x300]
;;;393    {
;;;394        crpt->HMAC_CTL &= ~(0x7UL << CRPT_HMAC_CTL_DMALAST_Pos);
000004  f02202e0          BIC      r2,r2,#0xe0
000008  f8c02300          STR      r2,[r0,#0x300]
;;;395        crpt->HMAC_CTL |= CRPT_HMAC_CTL_START_Msk | (u32DMAMode << CRPT_HMAC_CTL_DMALAST_Pos);
00000c  f8d02300          LDR      r2,[r0,#0x300]
000010  2301              MOVS     r3,#1
000012  eb031141          ADD      r1,r3,r1,LSL #5
000016  430a              ORRS     r2,r2,r1
000018  f8c02300          STR      r2,[r0,#0x300]
;;;396    }
00001c  4770              BX       lr
;;;397    
                          ENDP


                          AREA ||i.TDES_Open||, CODE, READONLY, ALIGN=2

                  TDES_Open PROC
;;;256      */
;;;257    void TDES_Open(CRPT_T *crpt, uint32_t u32Channel, uint32_t u32EncDec, int32_t Is3DES, int32_t Is3Key,
000000  b570              PUSH     {r4-r6,lr}
;;;258                   uint32_t u32OpMode, uint32_t u32SwapType)
;;;259    {
;;;260        g_TDES_CTL[u32Channel] = (u32Channel << CRPT_TDES_CTL_CHANNEL_Pos) |
000002  060e              LSLS     r6,r1,#24
000004  e9dd5005          LDRD     r5,r0,[sp,#0x14]      ;259
000008  ea464202          ORR      r2,r6,r2,LSL #16
00000c  432a              ORRS     r2,r2,r5
00000e  ea425040          ORR      r0,r2,r0,LSL #21
000012  4a08              LDR      r2,|L23.52|
000014  9c04              LDR      r4,[sp,#0x10]
000016  f8420021          STR      r0,[r2,r1,LSL #2]
00001a  b11b              CBZ      r3,|L23.36|
;;;261                                 (u32EncDec << CRPT_TDES_CTL_ENCRPT_Pos) |
;;;262                                 u32OpMode | (u32SwapType << CRPT_TDES_CTL_BLKSWAP_Pos);
;;;263        if (Is3DES)
;;;264        {
;;;265            g_TDES_CTL[u32Channel] |= CRPT_TDES_CTL_TMODE_Msk;
00001c  f0400004          ORR      r0,r0,#4
000020  f8420021          STR      r0,[r2,r1,LSL #2]
                  |L23.36|
;;;266        }
;;;267        if (Is3Key)
000024  2c00              CMP      r4,#0
000026  d003              BEQ      |L23.48|
;;;268        {
;;;269            g_TDES_CTL[u32Channel] |= CRPT_TDES_CTL_3KEYS_Msk;
000028  f0400008          ORR      r0,r0,#8
00002c  f8420021          STR      r0,[r2,r1,LSL #2]
                  |L23.48|
;;;270        }
;;;271    }
000030  bd70              POP      {r4-r6,pc}
;;;272    
                          ENDP

000032  0000              DCW      0x0000
                  |L23.52|
                          DCD      ||.bss||+0x10

                          AREA ||i.TDES_SetDMATransfer||, CODE, READONLY, ALIGN=1

                  TDES_SetDMATransfer PROC
;;;338      */
;;;339    void TDES_SetDMATransfer(CRPT_T *crpt, uint32_t u32Channel, uint32_t u32SrcAddr,
000000  b510              PUSH     {r4,lr}
;;;340                             uint32_t u32DstAddr, uint32_t u32TransCnt)
;;;341    {
;;;342        uint32_t  reg_addr;
;;;343    
;;;344        reg_addr = (uint32_t)&crpt->TDES0_SA + (u32Channel * 0x40UL);
000002  eb001081          ADD      r0,r0,r1,LSL #6
000006  f44f710a          MOV      r1,#0x228
;;;345        outpw(reg_addr, u32SrcAddr);
00000a  9c02              LDR      r4,[sp,#8]
00000c  500a              STR      r2,[r1,r0]
;;;346    
;;;347        reg_addr = (uint32_t)&crpt->TDES0_DA + (u32Channel * 0x40UL);
00000e  1d09              ADDS     r1,r1,#4
;;;348        outpw(reg_addr, u32DstAddr);
000010  500b              STR      r3,[r1,r0]
;;;349    
;;;350        reg_addr = (uint32_t)&crpt->TDES0_CNT + (u32Channel * 0x40UL);
;;;351        outpw(reg_addr, u32TransCnt);
000012  f8c04230          STR      r4,[r0,#0x230]
;;;352    }
000016  bd10              POP      {r4,pc}
;;;353    
                          ENDP


                          AREA ||i.TDES_SetInitVect||, CODE, READONLY, ALIGN=1

                  TDES_SetInitVect PROC
;;;318      */
;;;319    void TDES_SetInitVect(CRPT_T *crpt, uint32_t u32Channel, uint32_t u32IVH, uint32_t u32IVL)
000000  eb001081          ADD      r0,r0,r1,LSL #6
;;;320    {
;;;321        uint32_t  reg_addr;
;;;322    
;;;323        reg_addr = (uint32_t)&crpt->TDES0_IVH + (u32Channel * 0x40UL);
000004  f44f7108          MOV      r1,#0x220
;;;324        outpw(reg_addr, u32IVH);
000008  500a              STR      r2,[r1,r0]
;;;325    
;;;326        reg_addr = (uint32_t)&crpt->TDES0_IVL + (u32Channel * 0x40UL);
;;;327        outpw(reg_addr, u32IVL);
00000a  f8c03224          STR      r3,[r0,#0x224]
;;;328    }
00000e  4770              BX       lr
;;;329    
                          ENDP


                          AREA ||i.TDES_SetKey||, CODE, READONLY, ALIGN=1

                  TDES_SetKey PROC
;;;295      */
;;;296    void TDES_SetKey(CRPT_T *crpt, uint32_t u32Channel, uint32_t au32Keys[3][2])
000000  eb001181          ADD      r1,r0,r1,LSL #6
;;;297    {
;;;298        uint32_t   i, reg_addr;
;;;299    
;;;300        reg_addr = (uint32_t)&crpt->TDES0_KEY1H + (0x40UL * u32Channel);
;;;301    
;;;302        for (i = 0U; i < 3U; i++)
000004  2000              MOVS     r0,#0
000006  f5017102          ADD      r1,r1,#0x208
                  |L26.10|
;;;303        {
;;;304            outpw(reg_addr, au32Keys[i][0]);   /* TDESn_KEYxH */
00000a  f8523030          LDR      r3,[r2,r0,LSL #3]
00000e  c108              STM      r1!,{r3}
;;;305            reg_addr += 4UL;
;;;306            outpw(reg_addr, au32Keys[i][1]);   /* TDESn_KEYxL */
000010  eb0203c0          ADD      r3,r2,r0,LSL #3
000014  685b              LDR      r3,[r3,#4]
000016  c108              STM      r1!,{r3}
000018  1c40              ADDS     r0,r0,#1
00001a  2803              CMP      r0,#3                 ;302
00001c  d3f5              BCC      |L26.10|
;;;307            reg_addr += 4UL;
;;;308        }
;;;309    }
00001e  4770              BX       lr
;;;310    
                          ENDP


                          AREA ||i.TDES_Start||, CODE, READONLY, ALIGN=2

                  TDES_Start PROC
;;;282      */
;;;283    void TDES_Start(CRPT_T *crpt, int32_t u32Channel, uint32_t u32DMAMode)
000000  b530              PUSH     {r4,r5,lr}
;;;284    {
;;;285        g_TDES_CTL[u32Channel] |= CRPT_TDES_CTL_START_Msk | (u32DMAMode << CRPT_TDES_CTL_DMALAST_Pos);
000002  4c06              LDR      r4,|L27.28|
000004  2501              MOVS     r5,#1
000006  eb051242          ADD      r2,r5,r2,LSL #5
00000a  f8543021          LDR      r3,[r4,r1,LSL #2]
00000e  4313              ORRS     r3,r3,r2
000010  f8443021          STR      r3,[r4,r1,LSL #2]
;;;286        crpt->TDES_CTL = g_TDES_CTL[u32Channel];
000014  f8c03200          STR      r3,[r0,#0x200]
;;;287    }
000018  bd30              POP      {r4,r5,pc}
;;;288    
                          ENDP

00001a  0000              DCW      0x0000
                  |L27.28|
                          DCD      ||.bss||+0x10

                          AREA ||i.ch2hex||, CODE, READONLY, ALIGN=1

                  ch2hex PROC
;;;909    
;;;910    static char  ch2hex(char ch)
000000  2839              CMP      r0,#0x39
;;;911    {
000002  d801              BHI      |L28.8|
000004  3830              SUBS     r0,r0,#0x30
;;;912        if (ch <= '9')
;;;913        {
;;;914            ch = ch - '0';
000006  e004              B        |L28.18|
                  |L28.8|
;;;915        }
;;;916        else if ((ch <= 'z') && (ch >= 'a'))
000008  f1a00161          SUB      r1,r0,#0x61
00000c  2919              CMP      r1,#0x19
00000e  d802              BHI      |L28.22|
000010  3857              SUBS     r0,r0,#0x57
                  |L28.18|
000012  b2c0              UXTB     r0,r0                 ;914
;;;917        {
;;;918            ch = ch - 'a' + 10U;
;;;919        }
;;;920        else
;;;921        {
;;;922            ch = ch - 'A' + 10U;
;;;923        }
;;;924        return ch;
;;;925    }
000014  4770              BX       lr
                  |L28.22|
000016  3837              SUBS     r0,r0,#0x37
000018  e7fb              B        |L28.18|
;;;926    
                          ENDP


                          AREA ||i.ecc_init_curve||, CODE, READONLY, ALIGN=2

                  ecc_init_curve PROC
;;;1029   
;;;1030   static int32_t ecc_init_curve(CRPT_T *crpt, E_ECC_CURVE ecc_curve)
000000  e92d41f0          PUSH     {r4-r8,lr}
;;;1031   {
000004  4604              MOV      r4,r0
;;;1032       int32_t  i, ret = 0;
000006  2500              MOVS     r5,#0
;;;1033   
;;;1034       pCurve = get_curve(ecc_curve);
000008  4608              MOV      r0,r1
00000a  f7fffffe          BL       get_curve
00000e  4e45              LDR      r6,|L29.292|
000010  0003              MOVS     r3,r0
;;;1035       if (pCurve == NULL)
000012  6033              STR      r3,[r6,#0]  ; pCurve
000014  d038              BEQ      |L29.136|
;;;1036       {
;;;1037           CRPT_DBGMSG("Cannot find curve %d!!\n", ecc_curve);
;;;1038           ret = -1;
;;;1039       }
;;;1040   
;;;1041       if (ret == 0)
;;;1042       {
;;;1043           for (i = 0; i < 18; i++)
000016  2100              MOVS     r1,#0
000018  460a              MOV      r2,r1
                  |L29.26|
;;;1044           {
;;;1045               crpt->ECC_A[i] = 0UL;
00001a  eb040081          ADD      r0,r4,r1,LSL #2
00001e  f8c02928          STR      r2,[r0,#0x928]
;;;1046               crpt->ECC_B[i] = 0UL;
000022  f8c02970          STR      r2,[r0,#0x970]
;;;1047               crpt->ECC_X1[i] = 0UL;
000026  f8c02808          STR      r2,[r0,#0x808]
;;;1048               crpt->ECC_Y1[i] = 0UL;
00002a  f8c02850          STR      r2,[r0,#0x850]
;;;1049               crpt->ECC_N[i] = 0UL;
00002e  f8c029b8          STR      r2,[r0,#0x9b8]
000032  1c49              ADDS     r1,r1,#1
000034  2912              CMP      r1,#0x12              ;1043
000036  dbf0              BLT      |L29.26|
;;;1050           }
;;;1051   
;;;1052           Hex2Reg(pCurve->Ea, crpt->ECC_A);
000038  f6041128          ADD      r1,r4,#0x928
00003c  f1030008          ADD      r0,r3,#8
000040  f7fffffe          BL       Hex2Reg
;;;1053           Hex2Reg(pCurve->Eb, crpt->ECC_B);
000044  6830              LDR      r0,[r6,#0]  ; pCurve
000046  f5046117          ADD      r1,r4,#0x970
00004a  3098              ADDS     r0,r0,#0x98
00004c  f7fffffe          BL       Hex2Reg
;;;1054           Hex2Reg(pCurve->Px, crpt->ECC_X1);
000050  6830              LDR      r0,[r6,#0]  ; pCurve
000052  f6040108          ADD      r1,r4,#0x808
000056  f5007094          ADD      r0,r0,#0x128
00005a  f7fffffe          BL       Hex2Reg
;;;1055           Hex2Reg(pCurve->Py, crpt->ECC_Y1);
00005e  6830              LDR      r0,[r6,#0]  ; pCurve
000060  f5046105          ADD      r1,r4,#0x850
000064  f50070dc          ADD      r0,r0,#0x1b8
000068  f7fffffe          BL       Hex2Reg
;;;1056   
;;;1057           CRPT_DBGMSG("Key length = %d\n", pCurve->key_len);
;;;1058           dump_ecc_reg("CRPT_ECC_CURVE_A", crpt->ECC_A, 10);
;;;1059           dump_ecc_reg("CRPT_ECC_CURVE_B", crpt->ECC_B, 10);
;;;1060           dump_ecc_reg("CRPT_ECC_POINT_X1", crpt->ECC_X1, 10);
;;;1061           dump_ecc_reg("CRPT_ECC_POINT_Y1", crpt->ECC_Y1, 10);
;;;1062   
;;;1063           if (pCurve->GF == (int)CURVE_GF_2M)
00006c  6830              LDR      r0,[r6,#0]  ; pCurve
00006e  f8d013c0          LDR      r1,[r0,#0x3c0]
000072  2901              CMP      r1,#1
000074  d00b              BEQ      |L29.142|
;;;1064           {
;;;1065               crpt->ECC_N[0] = 0x1UL;
;;;1066               crpt->ECC_N[(pCurve->key_len) / 32] |= (1UL << ((pCurve->key_len) % 32));
;;;1067               crpt->ECC_N[(pCurve->irreducible_k1) / 32] |= (1UL << ((pCurve->irreducible_k1) % 32));
;;;1068               crpt->ECC_N[(pCurve->irreducible_k2) / 32] |= (1UL << ((pCurve->irreducible_k2) % 32));
;;;1069               crpt->ECC_N[(pCurve->irreducible_k3) / 32] |= (1UL << ((pCurve->irreducible_k3) % 32));
;;;1070           }
;;;1071           else
;;;1072           {
;;;1073               Hex2Reg(pCurve->Pp, crpt->ECC_N);
000076  f60411b8          ADD      r1,r4,#0x9b8
00007a  f5007013          ADD      r0,r0,#0x24c
00007e  f7fffffe          BL       Hex2Reg
                  |L29.130|
;;;1074           }
;;;1075       }
;;;1076       dump_ecc_reg("CRPT_ECC_CURVE_N", crpt->ECC_N, 10);
;;;1077       return ret;
000082  4628              MOV      r0,r5
;;;1078   }
000084  e8bd81f0          POP      {r4-r8,pc}
                  |L29.136|
000088  f04f35ff          MOV      r5,#0xffffffff        ;1038
00008c  e7f9              B        |L29.130|
                  |L29.142|
00008e  2201              MOVS     r2,#1                 ;1065
000090  f8c429b8          STR      r2,[r4,#0x9b8]        ;1065
000094  f8d013b0          LDR      r1,[r0,#0x3b0]        ;1066
000098  17cb              ASRS     r3,r1,#31             ;1066
00009a  eb0163d3          ADD      r3,r1,r3,LSR #27      ;1066
00009e  115e              ASRS     r6,r3,#5              ;1066
0000a0  eb040686          ADD      r6,r4,r6,LSL #2       ;1066
0000a4  f8d679b8          LDR      r7,[r6,#0x9b8]        ;1066
0000a8  f023031f          BIC      r3,r3,#0x1f           ;1066
0000ac  1ac9              SUBS     r1,r1,r3              ;1066
0000ae  fa02f101          LSL      r1,r2,r1              ;1066
0000b2  430f              ORRS     r7,r7,r1              ;1066
0000b4  f8c679b8          STR      r7,[r6,#0x9b8]        ;1066
0000b8  f8d013b4          LDR      r1,[r0,#0x3b4]        ;1067
0000bc  17cb              ASRS     r3,r1,#31             ;1067
0000be  eb0166d3          ADD      r6,r1,r3,LSR #27      ;1067
0000c2  1173              ASRS     r3,r6,#5              ;1067
0000c4  eb040383          ADD      r3,r4,r3,LSL #2       ;1067
0000c8  f8d379b8          LDR      r7,[r3,#0x9b8]        ;1067
0000cc  f026061f          BIC      r6,r6,#0x1f           ;1067
0000d0  1b89              SUBS     r1,r1,r6              ;1067
0000d2  fa02f101          LSL      r1,r2,r1              ;1067
0000d6  430f              ORRS     r7,r7,r1              ;1067
0000d8  f8c379b8          STR      r7,[r3,#0x9b8]        ;1067
0000dc  f8d013b8          LDR      r1,[r0,#0x3b8]        ;1068
0000e0  17cb              ASRS     r3,r1,#31             ;1068
0000e2  eb0166d3          ADD      r6,r1,r3,LSR #27      ;1068
0000e6  1173              ASRS     r3,r6,#5              ;1068
0000e8  eb040383          ADD      r3,r4,r3,LSL #2       ;1068
0000ec  f8d379b8          LDR      r7,[r3,#0x9b8]        ;1068
0000f0  f026061f          BIC      r6,r6,#0x1f           ;1068
0000f4  1b89              SUBS     r1,r1,r6              ;1068
0000f6  fa02f101          LSL      r1,r2,r1              ;1068
0000fa  430f              ORRS     r7,r7,r1              ;1068
0000fc  f8c379b8          STR      r7,[r3,#0x9b8]        ;1068
000100  f8d003bc          LDR      r0,[r0,#0x3bc]        ;1069
000104  17c1              ASRS     r1,r0,#31             ;1069
000106  eb0061d1          ADD      r1,r0,r1,LSR #27      ;1069
00010a  114b              ASRS     r3,r1,#5              ;1069
00010c  eb040383          ADD      r3,r4,r3,LSL #2       ;1069
000110  f8d349b8          LDR      r4,[r3,#0x9b8]        ;1069
000114  f021011f          BIC      r1,r1,#0x1f           ;1069
000118  1a40              SUBS     r0,r0,r1              ;1069
00011a  4082              LSLS     r2,r2,r0              ;1069
00011c  4314              ORRS     r4,r4,r2              ;1069
00011e  f8c349b8          STR      r4,[r3,#0x9b8]        ;1069
000122  e7ae              B        |L29.130|
;;;1079   
                          ENDP

                  |L29.292|
                          DCD      ||.data||

                          AREA ||i.get_curve||, CODE, READONLY, ALIGN=2

                  get_curve PROC
;;;1009   
;;;1010   static ECC_CURVE * get_curve(E_ECC_CURVE ecc_curve)
000000  e92d41f0          PUSH     {r4-r8,lr}
;;;1011   {
000004  4605              MOV      r5,r0
;;;1012       uint32_t   i;
;;;1013       ECC_CURVE  *ret = NULL;
000006  2000              MOVS     r0,#0
;;;1014   
;;;1015       for (i = 0UL; i < sizeof(_Curve) / sizeof(ECC_CURVE); i++)
;;;1016       {
;;;1017           if (ecc_curve == _Curve[i].curve_id)
000008  4e0c              LDR      r6,|L30.60|
00000a  4604              MOV      r4,r0                 ;1015
;;;1018           {
;;;1019               memcpy((char *)&Curve_Copy, &_Curve[i], sizeof(ECC_CURVE));
00000c  f44f7771          MOV      r7,#0x3c4
                  |L30.16|
000010  ebc41104          RSB      r1,r4,r4,LSL #4       ;1017
000014  ebc12104          RSB      r1,r1,r4,LSL #8       ;1017
000018  f8162021          LDRB     r2,[r6,r1,LSL #2]     ;1017
00001c  42aa              CMP      r2,r5                 ;1017
00001e  d106              BNE      |L30.46|
000020  eb060181          ADD      r1,r6,r1,LSL #2
000024  463a              MOV      r2,r7
000026  4806              LDR      r0,|L30.64|
000028  f7fffffe          BL       __aeabi_memcpy4
;;;1020               ret = &Curve_Copy;   /* (ECC_CURVE *)&_Curve[i]; */
00002c  4804              LDR      r0,|L30.64|
                  |L30.46|
;;;1021           }
;;;1022           if (ret != NULL)
00002e  2800              CMP      r0,#0
000030  d102              BNE      |L30.56|
000032  1c64              ADDS     r4,r4,#1
000034  2c15              CMP      r4,#0x15              ;1015
000036  d3eb              BCC      |L30.16|
                  |L30.56|
;;;1023           {
;;;1024               break;
;;;1025           }
;;;1026       }
;;;1027       return ret;
;;;1028   }
000038  e8bd81f0          POP      {r4-r8,pc}
;;;1029   
                          ENDP

                  |L30.60|
                          DCD      ||.constdata||
                  |L30.64|
                          DCD      ||.bss||+0x20

                          AREA ||i.get_nibble_value||, CODE, READONLY, ALIGN=1

                  get_nibble_value PROC
;;;1079   
;;;1080   static int  get_nibble_value(char c)
000000  f1a00130          SUB      r1,r0,#0x30
;;;1081   {
;;;1082       if ((c >= '0') && (c <= '9'))
000004  2909              CMP      r1,#9
000006  d800              BHI      |L31.10|
;;;1083       {
;;;1084           c = c - '0';
000008  b2c8              UXTB     r0,r1
                  |L31.10|
;;;1085       }
;;;1086   
;;;1087       if ((c >= 'a') && (c <= 'f'))
00000a  f1a00161          SUB      r1,r0,#0x61
00000e  2905              CMP      r1,#5
000010  d801              BHI      |L31.22|
000012  3857              SUBS     r0,r0,#0x57
;;;1088       {
;;;1089           c = c - 'a' + (char)10;
000014  b2c0              UXTB     r0,r0
                  |L31.22|
;;;1090       }
;;;1091   
;;;1092       if ((c >= 'A') && (c <= 'F'))
000016  f1a00141          SUB      r1,r0,#0x41
00001a  2905              CMP      r1,#5
00001c  d801              BHI      |L31.34|
00001e  3837              SUBS     r0,r0,#0x37
;;;1093       {
;;;1094           c = c - 'A' + (char)10;
000020  b2c0              UXTB     r0,r0
                  |L31.34|
;;;1095       }
;;;1096       return (int)c;
;;;1097   }
000022  4770              BX       lr
;;;1098   
                          ENDP


                          AREA ||i.run_ecc_codec||, CODE, READONLY, ALIGN=2

                  run_ecc_codec PROC
;;;1381   
;;;1382   static void run_ecc_codec(CRPT_T *crpt, uint32_t mode)
000000  b570              PUSH     {r4-r6,lr}
;;;1383   {
;;;1384       if ((mode & CRPT_ECC_CTL_ECCOP_Msk) == ECCOP_MODULE)
;;;1385       {
;;;1386           crpt->ECC_CTL = CRPT_ECC_CTL_FSEL_Msk;
;;;1387       }
;;;1388       else
;;;1389       {
;;;1390           if (pCurve->GF == (int)CURVE_GF_2M)
000002  4a14              LDR      r2,|L32.84|
000004  f3c12641          UBFX     r6,r1,#9,#2           ;1384
000008  2400              MOVS     r4,#0
00000a  6813              LDR      r3,[r2,#0]            ;1384
00000c  f44f7580          MOV      r5,#0x100             ;1386
000010  2e01              CMP      r6,#1                 ;1384
000012  d003              BEQ      |L32.28|
000014  f8d363c0          LDR      r6,[r3,#0x3c0]
000018  2e01              CMP      r6,#1
00001a  d017              BEQ      |L32.76|
                  |L32.28|
;;;1391           {
;;;1392               /* point */
;;;1393               crpt->ECC_CTL = 0UL;
;;;1394           }
;;;1395           else
;;;1396           {
;;;1397               /* CURVE_GF_P */
;;;1398               crpt->ECC_CTL = CRPT_ECC_CTL_FSEL_Msk;
00001c  f8c05800          STR      r5,[r0,#0x800]
                  |L32.32|
;;;1399           }
;;;1400       }
;;;1401   
;;;1402       g_ECC_done = g_ECCERR_done = 0UL;
000020  6094              STR      r4,[r2,#8]  ; g_ECCERR_done
000022  6054              STR      r4,[r2,#4]  ; g_ECC_done
;;;1403       crpt->ECC_CTL |= ((uint32_t)pCurve->key_len << CRPT_ECC_CTL_CURVEM_Pos) | mode | CRPT_ECC_CTL_START_Msk;
000024  f8d04800          LDR      r4,[r0,#0x800]
000028  f8b333b0          LDRH     r3,[r3,#0x3b0]
00002c  f0410101          ORR      r1,r1,#1
000030  ea445383          ORR      r3,r4,r3,LSL #22
000034  430b              ORRS     r3,r3,r1
000036  f8c03800          STR      r3,[r0,#0x800]
                  |L32.58|
;;;1404       while ((g_ECC_done | g_ECCERR_done) == 0UL)
00003a  6851              LDR      r1,[r2,#4]  ; g_ECC_done
00003c  6893              LDR      r3,[r2,#8]  ; g_ECCERR_done
00003e  4319              ORRS     r1,r1,r3
000040  d0fb              BEQ      |L32.58|
                  |L32.66|
;;;1405       {
;;;1406       }
;;;1407   
;;;1408       while (crpt->ECC_STS & CRPT_ECC_STS_BUSY_Msk)
000042  f8d01804          LDR      r1,[r0,#0x804]
000046  07c9              LSLS     r1,r1,#31
000048  d1fb              BNE      |L32.66|
;;;1409       {
;;;1410       }
;;;1411   }
00004a  bd70              POP      {r4-r6,pc}
                  |L32.76|
00004c  f8c04800          STR      r4,[r0,#0x800]        ;1393
000050  e7e6              B        |L32.32|
;;;1412   /** @endcond HIDDEN_SYMBOLS */
                          ENDP

000052  0000              DCW      0x0000
                  |L32.84|
                          DCD      ||.data||

                          AREA ||.bss||, DATA, NOINIT, ALIGN=2

                  g_AES_CTL
                          %        16
                  g_TDES_CTL
                          %        16
                  Curve_Copy
                          %        964
                  temp_hex_str
                          %        160

                          AREA ||.constdata||, DATA, READONLY, ALIGN=2

                  _Curve
000000  00000000          DCB      0x00,0x00,0x00,0x00
                          DCD      0x00000030
000008  46464646          DCB      0x46,0x46,0x46,0x46
00000c  46464646          DCB      0x46,0x46,0x46,0x46
000010  46464646          DCB      0x46,0x46,0x46,0x46
000014  46464646          DCB      0x46,0x46,0x46,0x46
000018  46464646          DCB      0x46,0x46,0x46,0x46
00001c  46464646          DCB      0x46,0x46,0x46,0x46
000020  46464646          DCB      0x46,0x46,0x46,0x46
000024  46464645          DCB      0x46,0x46,0x46,0x45
000028  46464646          DCB      0x46,0x46,0x46,0x46
00002c  46464646          DCB      0x46,0x46,0x46,0x46
000030  46464646          DCB      0x46,0x46,0x46,0x46
000034  46464643          DCB      0x46,0x46,0x46,0x43
000038  00000000          DCB      0x00,0x00,0x00,0x00
                          %        92
000098  36343231          DCB      0x36,0x34,0x32,0x31
00009c  30353139          DCB      0x30,0x35,0x31,0x39
0000a0  65353963          DCB      0x65,0x35,0x39,0x63
0000a4  38306537          DCB      0x38,0x30,0x65,0x37
0000a8  30666137          DCB      0x30,0x66,0x61,0x37
0000ac  65396162          DCB      0x65,0x39,0x61,0x62
0000b0  37323234          DCB      0x37,0x32,0x32,0x34
0000b4  33303439          DCB      0x33,0x30,0x34,0x39
0000b8  66656238          DCB      0x66,0x65,0x62,0x38
0000bc  64656563          DCB      0x64,0x65,0x65,0x63
0000c0  63313436          DCB      0x63,0x31,0x34,0x36
0000c4  62396231          DCB      0x62,0x39,0x62,0x31
0000c8  00000000          DCB      0x00,0x00,0x00,0x00
                          %        92
000128  31383864          DCB      0x31,0x38,0x38,0x64
00012c  61383065          DCB      0x61,0x38,0x30,0x65
000130  62303330          DCB      0x62,0x30,0x33,0x30
000134  39306636          DCB      0x39,0x30,0x66,0x36
000138  37636266          DCB      0x37,0x63,0x62,0x66
00013c  32306562          DCB      0x32,0x30,0x65,0x62
000140  34336131          DCB      0x34,0x33,0x61,0x31
000144  38383030          DCB      0x38,0x38,0x30,0x30
000148  66346666          DCB      0x66,0x34,0x66,0x66
00014c  30616664          DCB      0x30,0x61,0x66,0x64
000150  38326666          DCB      0x38,0x32,0x66,0x66
000154  31303132          DCB      0x31,0x30,0x31,0x32
000158  00000000          DCB      0x00,0x00,0x00,0x00
                          %        92
0001b8  30373139          DCB      0x30,0x37,0x31,0x39
0001bc  32623935          DCB      0x32,0x62,0x39,0x35
0001c0  66666338          DCB      0x66,0x66,0x63,0x38
0001c4  64613738          DCB      0x64,0x61,0x37,0x38
0001c8  36333130          DCB      0x36,0x33,0x31,0x30
0001cc  31316564          DCB      0x31,0x31,0x65,0x64
0001d0  36623234          DCB      0x36,0x62,0x32,0x34
0001d4  63646435          DCB      0x63,0x64,0x64,0x35
0001d8  37336639          DCB      0x37,0x33,0x66,0x39
0001dc  37376131          DCB      0x37,0x37,0x61,0x31
0001e0  31653739          DCB      0x31,0x65,0x37,0x39
0001e4  34383131          DCB      0x34,0x38,0x31,0x31
0001e8  00000000          DCB      0x00,0x00,0x00,0x00
                          %        92
                          DCD      0x0000003a
00024c  46464646          DCB      0x46,0x46,0x46,0x46
000250  46464646          DCB      0x46,0x46,0x46,0x46
000254  46464646          DCB      0x46,0x46,0x46,0x46
000258  46464646          DCB      0x46,0x46,0x46,0x46
00025c  46464646          DCB      0x46,0x46,0x46,0x46
000260  46464646          DCB      0x46,0x46,0x46,0x46
000264  46464646          DCB      0x46,0x46,0x46,0x46
000268  46464645          DCB      0x46,0x46,0x46,0x45
00026c  46464646          DCB      0x46,0x46,0x46,0x46
000270  46464646          DCB      0x46,0x46,0x46,0x46
000274  46464646          DCB      0x46,0x46,0x46,0x46
000278  46464646          DCB      0x46,0x46,0x46,0x46
00027c  00000000          DCB      0x00,0x00,0x00,0x00
                          %        124
                          DCD      0x0000003a
000300  46464646          DCB      0x46,0x46,0x46,0x46
000304  46464646          DCB      0x46,0x46,0x46,0x46
000308  46464646          DCB      0x46,0x46,0x46,0x46
00030c  46464646          DCB      0x46,0x46,0x46,0x46
000310  46464646          DCB      0x46,0x46,0x46,0x46
000314  46464646          DCB      0x46,0x46,0x46,0x46
000318  39394445          DCB      0x39,0x39,0x44,0x45
00031c  46383336          DCB      0x46,0x38,0x33,0x36
000320  31343642          DCB      0x31,0x34,0x36,0x42
000324  43394231          DCB      0x43,0x39,0x42,0x31
000328  42344432          DCB      0x42,0x34,0x44,0x32
00032c  32383331          DCB      0x32,0x38,0x33,0x31
000330  00000000          DCB      0x00,0x00,0x00,0x00
                          %        124
                          DCD      0x000000c0
                          DCD      0x00000007
                          DCD      0x00000002
                          DCD      0x00000001
                          DCD      0x00000000
0003c4  01000000          DCB      0x01,0x00,0x00,0x00
                          DCD      0x00000038
0003cc  46464646          DCB      0x46,0x46,0x46,0x46
0003d0  46464646          DCB      0x46,0x46,0x46,0x46
0003d4  46464646          DCB      0x46,0x46,0x46,0x46
0003d8  46464646          DCB      0x46,0x46,0x46,0x46
0003dc  46464646          DCB      0x46,0x46,0x46,0x46
0003e0  46464646          DCB      0x46,0x46,0x46,0x46
0003e4  46464646          DCB      0x46,0x46,0x46,0x46
0003e8  46464645          DCB      0x46,0x46,0x46,0x45
0003ec  46464646          DCB      0x46,0x46,0x46,0x46
0003f0  46464646          DCB      0x46,0x46,0x46,0x46
0003f4  46464646          DCB      0x46,0x46,0x46,0x46
0003f8  46464646          DCB      0x46,0x46,0x46,0x46
0003fc  46464646          DCB      0x46,0x46,0x46,0x46
000400  46464645          DCB      0x46,0x46,0x46,0x45
000404  00000000          DCB      0x00,0x00,0x00,0x00
                          %        84
00045c  62343035          DCB      0x62,0x34,0x30,0x35
000460  30613835          DCB      0x30,0x61,0x38,0x35
000464  30633034          DCB      0x30,0x63,0x30,0x34
000468  62336162          DCB      0x62,0x33,0x61,0x62
00046c  66353431          DCB      0x66,0x35,0x34,0x31
000470  33323536          DCB      0x33,0x32,0x35,0x36
000474  35303434          DCB      0x35,0x30,0x34,0x34
000478  62306237          DCB      0x62,0x30,0x62,0x37
00047c  64376266          DCB      0x64,0x37,0x62,0x66
000480  64386261          DCB      0x64,0x38,0x62,0x61
000484  32373062          DCB      0x32,0x37,0x30,0x62
000488  33393433          DCB      0x33,0x39,0x34,0x33
00048c  32333535          DCB      0x32,0x33,0x35,0x35
000490  66666234          DCB      0x66,0x66,0x62,0x34
000494  00000000          DCB      0x00,0x00,0x00,0x00
                          %        84
0004ec  62373065          DCB      0x62,0x37,0x30,0x65
0004f0  30636264          DCB      0x30,0x63,0x62,0x64
0004f4  36626234          DCB      0x36,0x62,0x62,0x34
0004f8  62663766          DCB      0x62,0x66,0x37,0x66
0004fc  33323133          DCB      0x33,0x32,0x31,0x33
000500  39306239          DCB      0x39,0x30,0x62,0x39
000504  34613033          DCB      0x34,0x61,0x30,0x33
000508  63316433          DCB      0x63,0x31,0x64,0x33
00050c  35366332          DCB      0x35,0x36,0x63,0x32
000510  31313232          DCB      0x31,0x31,0x32,0x32
000514  33343332          DCB      0x33,0x34,0x33,0x32
000518  38306436          DCB      0x38,0x30,0x64,0x36
00051c  31313563          DCB      0x31,0x31,0x35,0x63
000520  31643231          DCB      0x31,0x64,0x32,0x31
000524  00000000          DCB      0x00,0x00,0x00,0x00
                          %        84
00057c  62643337          DCB      0x62,0x64,0x33,0x37
000580  36333838          DCB      0x36,0x33,0x38,0x38
000584  62356637          DCB      0x62,0x35,0x66,0x37
000588  32336662          DCB      0x32,0x33,0x66,0x62
00058c  34633232          DCB      0x34,0x63,0x32,0x32
000590  64666536          DCB      0x64,0x66,0x65,0x36
000594  63643433          DCB      0x63,0x64,0x34,0x33
000598  37356130          DCB      0x37,0x35,0x61,0x30
00059c  35613037          DCB      0x35,0x61,0x30,0x37
0005a0  34373634          DCB      0x34,0x37,0x36,0x34
0005a4  34346435          DCB      0x34,0x34,0x64,0x35
0005a8  38313939          DCB      0x38,0x31,0x39,0x39
0005ac  38353030          DCB      0x38,0x35,0x30,0x30
0005b0  37653334          DCB      0x37,0x65,0x33,0x34
0005b4  00000000          DCB      0x00,0x00,0x00,0x00
                          %        84
                          DCD      0x00000046
000610  46464646          DCB      0x46,0x46,0x46,0x46
000614  46464646          DCB      0x46,0x46,0x46,0x46
000618  46464646          DCB      0x46,0x46,0x46,0x46
00061c  46464646          DCB      0x46,0x46,0x46,0x46
000620  46464646          DCB      0x46,0x46,0x46,0x46
000624  46464646          DCB      0x46,0x46,0x46,0x46
000628  46464646          DCB      0x46,0x46,0x46,0x46
00062c  46464646          DCB      0x46,0x46,0x46,0x46
000630  30303030          DCB      0x30,0x30,0x30,0x30
000634  30303030          DCB      0x30,0x30,0x30,0x30
000638  30303030          DCB      0x30,0x30,0x30,0x30
00063c  30303030          DCB      0x30,0x30,0x30,0x30
000640  30303030          DCB      0x30,0x30,0x30,0x30
000644  30303031          DCB      0x30,0x30,0x30,0x31
000648  00000000          DCB      0x00,0x00,0x00,0x00
                          %        116
                          DCD      0x00000046
0006c4  46464646          DCB      0x46,0x46,0x46,0x46
0006c8  46464646          DCB      0x46,0x46,0x46,0x46
0006cc  46464646          DCB      0x46,0x46,0x46,0x46
0006d0  46464646          DCB      0x46,0x46,0x46,0x46
0006d4  46464646          DCB      0x46,0x46,0x46,0x46
0006d8  46464646          DCB      0x46,0x46,0x46,0x46
0006dc  46464646          DCB      0x46,0x46,0x46,0x46
0006e0  31364132          DCB      0x31,0x36,0x41,0x32
0006e4  45304238          DCB      0x45,0x30,0x42,0x38
0006e8  46303345          DCB      0x46,0x30,0x33,0x45
0006ec  31334444          DCB      0x31,0x33,0x44,0x44
0006f0  32393435          DCB      0x32,0x39,0x34,0x35
0006f4  35433543          DCB      0x35,0x43,0x35,0x43
0006f8  32413344          DCB      0x32,0x41,0x33,0x44
0006fc  00000000          DCB      0x00,0x00,0x00,0x00
                          %        116
                          DCD      0x000000e0
                          DCD      0x00000009
                          DCD      0x00000008
                          DCD      0x00000003
                          DCD      0x00000000
000788  02000000          DCB      0x02,0x00,0x00,0x00
                          DCD      0x00000040
000790  46464646          DCB      0x46,0x46,0x46,0x46
000794  46464646          DCB      0x46,0x46,0x46,0x46
000798  30303030          DCB      0x30,0x30,0x30,0x30
00079c  30303031          DCB      0x30,0x30,0x30,0x31
0007a0  30303030          DCB      0x30,0x30,0x30,0x30
0007a4  30303030          DCB      0x30,0x30,0x30,0x30
0007a8  30303030          DCB      0x30,0x30,0x30,0x30
0007ac  30303030          DCB      0x30,0x30,0x30,0x30
0007b0  30303030          DCB      0x30,0x30,0x30,0x30
0007b4  30303030          DCB      0x30,0x30,0x30,0x30
0007b8  46464646          DCB      0x46,0x46,0x46,0x46
0007bc  46464646          DCB      0x46,0x46,0x46,0x46
0007c0  46464646          DCB      0x46,0x46,0x46,0x46
0007c4  46464646          DCB      0x46,0x46,0x46,0x46
0007c8  46464646          DCB      0x46,0x46,0x46,0x46
0007cc  46464643          DCB      0x46,0x46,0x46,0x43
0007d0  00000000          DCB      0x00,0x00,0x00,0x00
                          %        76
000820  35616336          DCB      0x35,0x61,0x63,0x36
000824  33356438          DCB      0x33,0x35,0x64,0x38
000828  61613361          DCB      0x61,0x61,0x33,0x61
00082c  39336537          DCB      0x39,0x33,0x65,0x37
000830  62336562          DCB      0x62,0x33,0x65,0x62
000834  62643535          DCB      0x62,0x64,0x35,0x35
000838  37363938          DCB      0x37,0x36,0x39,0x38
00083c  38366263          DCB      0x38,0x36,0x62,0x63
000840  36353164          DCB      0x36,0x35,0x31,0x64
000844  30366230          DCB      0x30,0x36,0x62,0x30
000848  63633533          DCB      0x63,0x63,0x35,0x33
00084c  62306636          DCB      0x62,0x30,0x66,0x36
000850  33626365          DCB      0x33,0x62,0x63,0x65
000854  33633365          DCB      0x33,0x63,0x33,0x65
000858  32376432          DCB      0x32,0x37,0x64,0x32
00085c  36303462          DCB      0x36,0x30,0x34,0x62
000860  00000000          DCB      0x00,0x00,0x00,0x00
                          %        76
0008b0  36623137          DCB      0x36,0x62,0x31,0x37
0008b4  64316632          DCB      0x64,0x31,0x66,0x32
0008b8  65313263          DCB      0x65,0x31,0x32,0x63
0008bc  34323437          DCB      0x34,0x32,0x34,0x37
0008c0  66386263          DCB      0x66,0x38,0x62,0x63
0008c4  65366535          DCB      0x65,0x36,0x65,0x35
0008c8  36336134          DCB      0x36,0x33,0x61,0x34
0008cc  34306632          DCB      0x34,0x30,0x66,0x32
0008d0  37373033          DCB      0x37,0x37,0x30,0x33
0008d4  37643831          DCB      0x37,0x64,0x38,0x31
0008d8  32646562          DCB      0x32,0x64,0x65,0x62
0008dc  33336130          DCB      0x33,0x33,0x61,0x30
0008e0  66346131          DCB      0x66,0x34,0x61,0x31
0008e4  33393435          DCB      0x33,0x39,0x34,0x35
0008e8  64383938          DCB      0x64,0x38,0x39,0x38
0008ec  63323936          DCB      0x63,0x32,0x39,0x36
0008f0  00000000          DCB      0x00,0x00,0x00,0x00
                          %        76
000940  34666533          DCB      0x34,0x66,0x65,0x33
000944  34326532          DCB      0x34,0x32,0x65,0x32
000948  66653161          DCB      0x66,0x65,0x31,0x61
00094c  37663962          DCB      0x37,0x66,0x39,0x62
000950  38656537          DCB      0x38,0x65,0x65,0x37
000954  65623461          DCB      0x65,0x62,0x34,0x61
000958  37633066          DCB      0x37,0x63,0x30,0x66
00095c  39653136          DCB      0x39,0x65,0x31,0x36
000960  32626365          DCB      0x32,0x62,0x63,0x65
000964  33333537          DCB      0x33,0x33,0x35,0x37
000968  36623331          DCB      0x36,0x62,0x33,0x31
00096c  35656365          DCB      0x35,0x65,0x63,0x65
000970  63626236          DCB      0x63,0x62,0x62,0x36
000974  34303638          DCB      0x34,0x30,0x36,0x38
000978  33376266          DCB      0x33,0x37,0x62,0x66
00097c  35316635          DCB      0x35,0x31,0x66,0x35
000980  00000000          DCB      0x00,0x00,0x00,0x00
                          %        76
                          DCD      0x0000004e
0009d4  46464646          DCB      0x46,0x46,0x46,0x46
0009d8  46464646          DCB      0x46,0x46,0x46,0x46
0009dc  30303030          DCB      0x30,0x30,0x30,0x30
0009e0  30303031          DCB      0x30,0x30,0x30,0x31
0009e4  30303030          DCB      0x30,0x30,0x30,0x30
0009e8  30303030          DCB      0x30,0x30,0x30,0x30
0009ec  30303030          DCB      0x30,0x30,0x30,0x30
0009f0  30303030          DCB      0x30,0x30,0x30,0x30
0009f4  30303030          DCB      0x30,0x30,0x30,0x30
0009f8  30303030          DCB      0x30,0x30,0x30,0x30
0009fc  46464646          DCB      0x46,0x46,0x46,0x46
000a00  46464646          DCB      0x46,0x46,0x46,0x46
000a04  46464646          DCB      0x46,0x46,0x46,0x46
000a08  46464646          DCB      0x46,0x46,0x46,0x46
000a0c  46464646          DCB      0x46,0x46,0x46,0x46
000a10  46464646          DCB      0x46,0x46,0x46,0x46
000a14  00000000          DCB      0x00,0x00,0x00,0x00
                          %        108
                          DCD      0x0000004e
000a88  46464646          DCB      0x46,0x46,0x46,0x46
000a8c  46464646          DCB      0x46,0x46,0x46,0x46
000a90  30303030          DCB      0x30,0x30,0x30,0x30
000a94  30303030          DCB      0x30,0x30,0x30,0x30
000a98  46464646          DCB      0x46,0x46,0x46,0x46
000a9c  46464646          DCB      0x46,0x46,0x46,0x46
000aa0  46464646          DCB      0x46,0x46,0x46,0x46
000aa4  46464646          DCB      0x46,0x46,0x46,0x46
000aa8  42434536          DCB      0x42,0x43,0x45,0x36
000aac  46414144          DCB      0x46,0x41,0x41,0x44
000ab0  41373137          DCB      0x41,0x37,0x31,0x37
000ab4  39453834          DCB      0x39,0x45,0x38,0x34
000ab8  46334239          DCB      0x46,0x33,0x42,0x39
000abc  43414332          DCB      0x43,0x41,0x43,0x32
000ac0  46433633          DCB      0x46,0x43,0x36,0x33
000ac4  32353531          DCB      0x32,0x35,0x35,0x31
000ac8  00000000          DCB      0x00,0x00,0x00,0x00
                          %        108
                          DCD      0x00000100
                          DCD      0x0000000a
                          DCD      0x00000005
                          DCD      0x00000002
                          DCD      0x00000000
000b4c  03000000          DCB      0x03,0x00,0x00,0x00
                          DCD      0x00000060
000b54  46464646          DCB      0x46,0x46,0x46,0x46
000b58  46464646          DCB      0x46,0x46,0x46,0x46
000b5c  46464646          DCB      0x46,0x46,0x46,0x46
000b60  46464646          DCB      0x46,0x46,0x46,0x46
000b64  46464646          DCB      0x46,0x46,0x46,0x46
000b68  46464646          DCB      0x46,0x46,0x46,0x46
000b6c  46464646          DCB      0x46,0x46,0x46,0x46
000b70  46464646          DCB      0x46,0x46,0x46,0x46
000b74  46464646          DCB      0x46,0x46,0x46,0x46
000b78  46464646          DCB      0x46,0x46,0x46,0x46
000b7c  46464646          DCB      0x46,0x46,0x46,0x46
000b80  46464646          DCB      0x46,0x46,0x46,0x46
000b84  46464646          DCB      0x46,0x46,0x46,0x46
000b88  46464646          DCB      0x46,0x46,0x46,0x46
000b8c  46464646          DCB      0x46,0x46,0x46,0x46
000b90  46464645          DCB      0x46,0x46,0x46,0x45
000b94  46464646          DCB      0x46,0x46,0x46,0x46
000b98  46464646          DCB      0x46,0x46,0x46,0x46
000b9c  30303030          DCB      0x30,0x30,0x30,0x30
000ba0  30303030          DCB      0x30,0x30,0x30,0x30
000ba4  30303030          DCB      0x30,0x30,0x30,0x30
000ba8  30303030          DCB      0x30,0x30,0x30,0x30
000bac  46464646          DCB      0x46,0x46,0x46,0x46
000bb0  46464643          DCB      0x46,0x46,0x46,0x43
000bb4  00000000          DCB      0x00,0x00,0x00,0x00
                          %        44
000be4  62333331          DCB      0x62,0x33,0x33,0x31
000be8  32666137          DCB      0x32,0x66,0x61,0x37
000bec  65323365          DCB      0x65,0x32,0x33,0x65
000bf0  65376534          DCB      0x65,0x37,0x65,0x34
000bf4  39383865          DCB      0x39,0x38,0x38,0x65
000bf8  30353662          DCB      0x30,0x35,0x36,0x62
000bfc  65336638          DCB      0x65,0x33,0x66,0x38
000c00  32643139          DCB      0x32,0x64,0x31,0x39
000c04  31383164          DCB      0x31,0x38,0x31,0x64
000c08  39633665          DCB      0x39,0x63,0x36,0x65
000c0c  66653831          DCB      0x66,0x65,0x38,0x31
000c10  34313132          DCB      0x34,0x31,0x31,0x32
000c14  30333134          DCB      0x30,0x33,0x31,0x34
000c18  30383866          DCB      0x30,0x38,0x38,0x66
000c1c  35303133          DCB      0x35,0x30,0x31,0x33
000c20  38373561          DCB      0x38,0x37,0x35,0x61
000c24  63363536          DCB      0x63,0x36,0x35,0x36
000c28  33393864          DCB      0x33,0x39,0x38,0x64
000c2c  38613265          DCB      0x38,0x61,0x32,0x65
000c30  64313964          DCB      0x64,0x31,0x39,0x64
000c34  32613835          DCB      0x32,0x61,0x38,0x35
000c38  63386564          DCB      0x63,0x38,0x65,0x64
000c3c  64336563          DCB      0x64,0x33,0x65,0x63
000c40  32616566          DCB      0x32,0x61,0x65,0x66
000c44  00000000          DCB      0x00,0x00,0x00,0x00
                          %        44
000c74  61613837          DCB      0x61,0x61,0x38,0x37
000c78  63613232          DCB      0x63,0x61,0x32,0x32
000c7c  62653862          DCB      0x62,0x65,0x38,0x62
000c80  30353337          DCB      0x30,0x35,0x33,0x37
000c84  38656231          DCB      0x38,0x65,0x62,0x31
000c88  63373165          DCB      0x63,0x37,0x31,0x65
000c8c  66333230          DCB      0x66,0x33,0x32,0x30
000c90  61643734          DCB      0x61,0x64,0x37,0x34
000c94  36653164          DCB      0x36,0x65,0x31,0x64
000c98  33623632          DCB      0x33,0x62,0x36,0x32
000c9c  38626137          DCB      0x38,0x62,0x61,0x37
000ca0  39623938          DCB      0x39,0x62,0x39,0x38
000ca4  35396637          DCB      0x35,0x39,0x66,0x37
000ca8  34316530          DCB      0x34,0x31,0x65,0x30
000cac  38323534          DCB      0x38,0x32,0x35,0x34
000cb0  32613338          DCB      0x32,0x61,0x33,0x38
000cb4  35353032          DCB      0x35,0x35,0x30,0x32
000cb8  66323564          DCB      0x66,0x32,0x35,0x64
000cbc  62663535          DCB      0x62,0x66,0x35,0x35
000cc0  32393663          DCB      0x32,0x39,0x36,0x63
000cc4  33613534          DCB      0x33,0x61,0x35,0x34
000cc8  35653338          DCB      0x35,0x65,0x33,0x38
000ccc  37323736          DCB      0x37,0x32,0x37,0x36
000cd0  30616237          DCB      0x30,0x61,0x62,0x37
000cd4  00000000          DCB      0x00,0x00,0x00,0x00
                          %        44
000d04  33363137          DCB      0x33,0x36,0x31,0x37
000d08  64653461          DCB      0x64,0x65,0x34,0x61
000d0c  39363236          DCB      0x39,0x36,0x32,0x36
000d10  32633666          DCB      0x32,0x63,0x36,0x66
000d14  35643965          DCB      0x35,0x64,0x39,0x65
000d18  39386266          DCB      0x39,0x38,0x62,0x66
000d1c  39323932          DCB      0x39,0x32,0x39,0x32
000d20  64633239          DCB      0x64,0x63,0x32,0x39
000d24  66386634          DCB      0x66,0x38,0x66,0x34
000d28  31646264          DCB      0x31,0x64,0x62,0x64
000d2c  32383961          DCB      0x32,0x38,0x39,0x61
000d30  31343763          DCB      0x31,0x34,0x37,0x63
000d34  65396461          DCB      0x65,0x39,0x64,0x61
000d38  33313133          DCB      0x33,0x31,0x31,0x33
000d3c  62356630          DCB      0x62,0x35,0x66,0x30
000d40  62386330          DCB      0x62,0x38,0x63,0x30
000d44  30613630          DCB      0x30,0x61,0x36,0x30
000d48  62316365          DCB      0x62,0x31,0x63,0x65
000d4c  31643765          DCB      0x31,0x64,0x37,0x65
000d50  38313964          DCB      0x38,0x31,0x39,0x64
000d54  37613433          DCB      0x37,0x61,0x34,0x33
000d58  31643763          DCB      0x31,0x64,0x37,0x63
000d5c  39306561          DCB      0x39,0x30,0x65,0x61
000d60  30653566          DCB      0x30,0x65,0x35,0x66
000d64  00000000          DCB      0x00,0x00,0x00,0x00
                          %        44
                          DCD      0x00000074
000d98  46464646          DCB      0x46,0x46,0x46,0x46
000d9c  46464646          DCB      0x46,0x46,0x46,0x46
000da0  46464646          DCB      0x46,0x46,0x46,0x46
000da4  46464646          DCB      0x46,0x46,0x46,0x46
000da8  46464646          DCB      0x46,0x46,0x46,0x46
000dac  46464646          DCB      0x46,0x46,0x46,0x46
000db0  46464646          DCB      0x46,0x46,0x46,0x46
000db4  46464646          DCB      0x46,0x46,0x46,0x46
000db8  46464646          DCB      0x46,0x46,0x46,0x46
000dbc  46464646          DCB      0x46,0x46,0x46,0x46
000dc0  46464646          DCB      0x46,0x46,0x46,0x46
000dc4  46464646          DCB      0x46,0x46,0x46,0x46
000dc8  46464646          DCB      0x46,0x46,0x46,0x46
000dcc  46464646          DCB      0x46,0x46,0x46,0x46
000dd0  46464646          DCB      0x46,0x46,0x46,0x46
000dd4  46464645          DCB      0x46,0x46,0x46,0x45
000dd8  46464646          DCB      0x46,0x46,0x46,0x46
000ddc  46464646          DCB      0x46,0x46,0x46,0x46
000de0  30303030          DCB      0x30,0x30,0x30,0x30
000de4  30303030          DCB      0x30,0x30,0x30,0x30
000de8  30303030          DCB      0x30,0x30,0x30,0x30
000dec  30303030          DCB      0x30,0x30,0x30,0x30
000df0  46464646          DCB      0x46,0x46,0x46,0x46
000df4  46464646          DCB      0x46,0x46,0x46,0x46
000df8  00000000          DCB      0x00,0x00,0x00,0x00
                          %        76
                          DCD      0x00000074
000e4c  46464646          DCB      0x46,0x46,0x46,0x46
000e50  46464646          DCB      0x46,0x46,0x46,0x46
000e54  46464646          DCB      0x46,0x46,0x46,0x46
000e58  46464646          DCB      0x46,0x46,0x46,0x46
000e5c  46464646          DCB      0x46,0x46,0x46,0x46
000e60  46464646          DCB      0x46,0x46,0x46,0x46
000e64  46464646          DCB      0x46,0x46,0x46,0x46
000e68  46464646          DCB      0x46,0x46,0x46,0x46
000e6c  46464646          DCB      0x46,0x46,0x46,0x46
000e70  46464646          DCB      0x46,0x46,0x46,0x46
000e74  46464646          DCB      0x46,0x46,0x46,0x46
000e78  46464646          DCB      0x46,0x46,0x46,0x46
000e7c  43373633          DCB      0x43,0x37,0x36,0x33
000e80  34443831          DCB      0x34,0x44,0x38,0x31
000e84  46343337          DCB      0x46,0x34,0x33,0x37
000e88  32444446          DCB      0x32,0x44,0x44,0x46
000e8c  35383141          DCB      0x35,0x38,0x31,0x41
000e90  30444232          DCB      0x30,0x44,0x42,0x32
000e94  34384230          DCB      0x34,0x38,0x42,0x30
000e98  41373741          DCB      0x41,0x37,0x37,0x41
000e9c  45434543          DCB      0x45,0x43,0x45,0x43
000ea0  31393641          DCB      0x31,0x39,0x36,0x41
000ea4  43434335          DCB      0x43,0x43,0x43,0x35
000ea8  32393733          DCB      0x32,0x39,0x37,0x33
000eac  00000000          DCB      0x00,0x00,0x00,0x00
                          %        76
                          DCD      0x00000180
                          DCD      0x0000000c
                          DCD      0x00000003
                          DCD      0x00000002
                          DCD      0x00000000
000f10  04000000          DCB      0x04,0x00,0x00,0x00
                          DCD      0x00000083
000f18  31464646          DCB      0x31,0x46,0x46,0x46
000f1c  46464646          DCB      0x46,0x46,0x46,0x46
000f20  46464646          DCB      0x46,0x46,0x46,0x46
000f24  46464646          DCB      0x46,0x46,0x46,0x46
000f28  46464646          DCB      0x46,0x46,0x46,0x46
000f2c  46464646          DCB      0x46,0x46,0x46,0x46
000f30  46464646          DCB      0x46,0x46,0x46,0x46
000f34  46464646          DCB      0x46,0x46,0x46,0x46
000f38  46464646          DCB      0x46,0x46,0x46,0x46
000f3c  46464646          DCB      0x46,0x46,0x46,0x46
000f40  46464646          DCB      0x46,0x46,0x46,0x46
000f44  46464646          DCB      0x46,0x46,0x46,0x46
000f48  46464646          DCB      0x46,0x46,0x46,0x46
000f4c  46464646          DCB      0x46,0x46,0x46,0x46
000f50  46464646          DCB      0x46,0x46,0x46,0x46
000f54  46464646          DCB      0x46,0x46,0x46,0x46
000f58  46464646          DCB      0x46,0x46,0x46,0x46
000f5c  46464646          DCB      0x46,0x46,0x46,0x46
000f60  46464646          DCB      0x46,0x46,0x46,0x46
000f64  46464646          DCB      0x46,0x46,0x46,0x46
000f68  46464646          DCB      0x46,0x46,0x46,0x46
000f6c  46464646          DCB      0x46,0x46,0x46,0x46
000f70  46464646          DCB      0x46,0x46,0x46,0x46
000f74  46464646          DCB      0x46,0x46,0x46,0x46
000f78  46464646          DCB      0x46,0x46,0x46,0x46
000f7c  46464646          DCB      0x46,0x46,0x46,0x46
000f80  46464646          DCB      0x46,0x46,0x46,0x46
000f84  46464646          DCB      0x46,0x46,0x46,0x46
000f88  46464646          DCB      0x46,0x46,0x46,0x46
000f8c  46464646          DCB      0x46,0x46,0x46,0x46
000f90  46464646          DCB      0x46,0x46,0x46,0x46
000f94  46464646          DCB      0x46,0x46,0x46,0x46
000f98  46464300          DCB      0x46,0x46,0x43,0x00
                          %        12
000fa8  30353139          DCB      0x30,0x35,0x31,0x39
000fac  35336562          DCB      0x35,0x33,0x65,0x62
000fb0  39363138          DCB      0x39,0x36,0x31,0x38
000fb4  65316339          DCB      0x65,0x31,0x63,0x39
000fb8  61316639          DCB      0x61,0x31,0x66,0x39
000fbc  32396132          DCB      0x32,0x39,0x61,0x32
000fc0  31613062          DCB      0x31,0x61,0x30,0x62
000fc4  36383534          DCB      0x36,0x38,0x35,0x34
000fc8  30656561          DCB      0x30,0x65,0x65,0x61
000fcc  32646137          DCB      0x32,0x64,0x61,0x37
000fd0  32356239          DCB      0x32,0x35,0x62,0x39
000fd4  39623331          DCB      0x39,0x62,0x33,0x31
000fd8  35663362          DCB      0x35,0x66,0x33,0x62
000fdc  38623438          DCB      0x38,0x62,0x34,0x38
000fe0  39393138          DCB      0x39,0x39,0x31,0x38
000fe4  65663130          DCB      0x65,0x66,0x31,0x30
000fe8  39653135          DCB      0x39,0x65,0x31,0x35
000fec  36313933          DCB      0x36,0x31,0x39,0x33
000ff0  39353165          DCB      0x39,0x35,0x31,0x65
000ff4  63376539          DCB      0x63,0x37,0x65,0x39
000ff8  33376231          DCB      0x33,0x37,0x62,0x31
000ffc  36353263          DCB      0x36,0x35,0x32,0x63
001000  30626433          DCB      0x30,0x62,0x64,0x33
001004  62623162          DCB      0x62,0x62,0x31,0x62
001008  66303733          DCB      0x66,0x30,0x37,0x33
00100c  35373364          DCB      0x35,0x37,0x33,0x64
001010  66383833          DCB      0x66,0x38,0x38,0x33
001014  64326333          DCB      0x64,0x32,0x63,0x33
001018  34663165          DCB      0x34,0x66,0x31,0x65
00101c  66343531          DCB      0x66,0x34,0x35,0x31
001020  66643436          DCB      0x66,0x64,0x34,0x36
001024  62353033          DCB      0x62,0x35,0x30,0x33
001028  66303000          DCB      0x66,0x30,0x30,0x00
                          %        12
001038  30633638          DCB      0x30,0x63,0x36,0x38
00103c  35386530          DCB      0x35,0x38,0x65,0x30
001040  36623730          DCB      0x36,0x62,0x37,0x30
001044  34303465          DCB      0x34,0x30,0x34,0x65
001048  39636439          DCB      0x39,0x63,0x64,0x39
00104c  65336563          DCB      0x65,0x33,0x65,0x63
001050  62363632          DCB      0x62,0x36,0x36,0x32
001054  33393562          DCB      0x33,0x39,0x35,0x62
001058  34343239          DCB      0x34,0x34,0x32,0x39
00105c  63363438          DCB      0x63,0x36,0x34,0x38
001060  31333930          DCB      0x31,0x33,0x39,0x30
001064  35336662          DCB      0x35,0x33,0x66,0x62
001068  35323166          DCB      0x35,0x32,0x31,0x66
00106c  38323861          DCB      0x38,0x32,0x38,0x61
001070  66363036          DCB      0x66,0x36,0x30,0x36
001074  62346433          DCB      0x62,0x34,0x64,0x33
001078  64626161          DCB      0x64,0x62,0x61,0x61
00107c  31346235          DCB      0x31,0x34,0x62,0x35
001080  65373765          DCB      0x65,0x37,0x37,0x65
001084  66653735          DCB      0x66,0x65,0x37,0x35
001088  39323866          DCB      0x39,0x32,0x38,0x66
00108c  65316463          DCB      0x65,0x31,0x64,0x63
001090  31323761          DCB      0x31,0x32,0x37,0x61
001094  32666661          DCB      0x32,0x66,0x66,0x61
001098  38646533          DCB      0x38,0x64,0x65,0x33
00109c  33343862          DCB      0x33,0x34,0x38,0x62
0010a0  33633138          DCB      0x33,0x63,0x31,0x38
0010a4  35366134          DCB      0x35,0x36,0x61,0x34
0010a8  32396266          DCB      0x32,0x39,0x62,0x66
0010ac  39376537          DCB      0x39,0x37,0x65,0x37
0010b0  65333163          DCB      0x65,0x33,0x31,0x63
0010b4  32653562          DCB      0x32,0x65,0x35,0x62
0010b8  64363600          DCB      0x64,0x36,0x36,0x00
                          %        12
0010c8  31313833          DCB      0x31,0x31,0x38,0x33
0010cc  39323936          DCB      0x39,0x32,0x39,0x36
0010d0  61373839          DCB      0x61,0x37,0x38,0x39
0010d4  61336263          DCB      0x61,0x33,0x62,0x63
0010d8  30303435          DCB      0x30,0x30,0x34,0x35
0010dc  63386135          DCB      0x63,0x38,0x61,0x35
0010e0  66623432          DCB      0x66,0x62,0x34,0x32
0010e4  63376431          DCB      0x63,0x37,0x64,0x31
0010e8  62643939          DCB      0x62,0x64,0x39,0x39
0010ec  38663534          DCB      0x38,0x66,0x35,0x34
0010f0  34343935          DCB      0x34,0x34,0x39,0x35
0010f4  37396234          DCB      0x37,0x39,0x62,0x34
0010f8  34363831          DCB      0x34,0x36,0x38,0x31
0010fc  37616662          DCB      0x37,0x61,0x66,0x62
001100  64313732          DCB      0x64,0x31,0x37,0x32
001104  37336536          DCB      0x37,0x33,0x65,0x36
001108  36326339          DCB      0x36,0x32,0x63,0x39
00110c  37656537          DCB      0x37,0x65,0x65,0x37
001110  32393935          DCB      0x32,0x39,0x39,0x35
001114  65663432          DCB      0x65,0x66,0x34,0x32
001118  36343063          DCB      0x36,0x34,0x30,0x63
00111c  35353062          DCB      0x35,0x35,0x30,0x62
001120  39303133          DCB      0x39,0x30,0x31,0x33
001124  66616430          DCB      0x66,0x61,0x64,0x30
001128  37363133          DCB      0x37,0x36,0x31,0x33
00112c  35336337          DCB      0x35,0x33,0x63,0x37
001130  30383661          DCB      0x30,0x38,0x36,0x61
001134  32373263          DCB      0x32,0x37,0x32,0x63
001138  32343038          DCB      0x32,0x34,0x30,0x38
00113c  38626539          DCB      0x38,0x62,0x65,0x39
001140  34373639          DCB      0x34,0x37,0x36,0x39
001144  66643136          DCB      0x66,0x64,0x31,0x36
001148  36353000          DCB      0x36,0x35,0x30,0x00
                          %        12
                          DCD      0x0000009d
00115c  31464646          DCB      0x31,0x46,0x46,0x46
001160  46464646          DCB      0x46,0x46,0x46,0x46
001164  46464646          DCB      0x46,0x46,0x46,0x46
001168  46464646          DCB      0x46,0x46,0x46,0x46
00116c  46464646          DCB      0x46,0x46,0x46,0x46
001170  46464646          DCB      0x46,0x46,0x46,0x46
001174  46464646          DCB      0x46,0x46,0x46,0x46
001178  46464646          DCB      0x46,0x46,0x46,0x46
00117c  46464646          DCB      0x46,0x46,0x46,0x46
001180  46464646          DCB      0x46,0x46,0x46,0x46
001184  46464646          DCB      0x46,0x46,0x46,0x46
001188  46464646          DCB      0x46,0x46,0x46,0x46
00118c  46464646          DCB      0x46,0x46,0x46,0x46
001190  46464646          DCB      0x46,0x46,0x46,0x46
001194  46464646          DCB      0x46,0x46,0x46,0x46
001198  46464646          DCB      0x46,0x46,0x46,0x46
00119c  46464646          DCB      0x46,0x46,0x46,0x46
0011a0  46464646          DCB      0x46,0x46,0x46,0x46
0011a4  46464646          DCB      0x46,0x46,0x46,0x46
0011a8  46464646          DCB      0x46,0x46,0x46,0x46
0011ac  46464646          DCB      0x46,0x46,0x46,0x46
0011b0  46464646          DCB      0x46,0x46,0x46,0x46
0011b4  46464646          DCB      0x46,0x46,0x46,0x46
0011b8  46464646          DCB      0x46,0x46,0x46,0x46
0011bc  46464646          DCB      0x46,0x46,0x46,0x46
0011c0  46464646          DCB      0x46,0x46,0x46,0x46
0011c4  46464646          DCB      0x46,0x46,0x46,0x46
0011c8  46464646          DCB      0x46,0x46,0x46,0x46
0011cc  46464646          DCB      0x46,0x46,0x46,0x46
0011d0  46464646          DCB      0x46,0x46,0x46,0x46
0011d4  46464646          DCB      0x46,0x46,0x46,0x46
0011d8  46464646          DCB      0x46,0x46,0x46,0x46
0011dc  46464600          DCB      0x46,0x46,0x46,0x00
                          %        44
                          DCD      0x0000009d
001210  31464646          DCB      0x31,0x46,0x46,0x46
001214  46464646          DCB      0x46,0x46,0x46,0x46
001218  46464646          DCB      0x46,0x46,0x46,0x46
00121c  46464646          DCB      0x46,0x46,0x46,0x46
001220  46464646          DCB      0x46,0x46,0x46,0x46
001224  46464646          DCB      0x46,0x46,0x46,0x46
001228  46464646          DCB      0x46,0x46,0x46,0x46
00122c  46464646          DCB      0x46,0x46,0x46,0x46
001230  46464646          DCB      0x46,0x46,0x46,0x46
001234  46464646          DCB      0x46,0x46,0x46,0x46
001238  46464646          DCB      0x46,0x46,0x46,0x46
00123c  46464646          DCB      0x46,0x46,0x46,0x46
001240  46464646          DCB      0x46,0x46,0x46,0x46
001244  46464646          DCB      0x46,0x46,0x46,0x46
001248  46464646          DCB      0x46,0x46,0x46,0x46
00124c  46464646          DCB      0x46,0x46,0x46,0x46
001250  46464135          DCB      0x46,0x46,0x41,0x35
001254  31383638          DCB      0x31,0x38,0x36,0x38
001258  37383342          DCB      0x37,0x38,0x33,0x42
00125c  46324639          DCB      0x46,0x32,0x46,0x39
001260  36364237          DCB      0x36,0x36,0x42,0x37
001264  46434330          DCB      0x46,0x43,0x43,0x30
001268  31343846          DCB      0x31,0x34,0x38,0x46
00126c  37303941          DCB      0x37,0x30,0x39,0x41
001270  35443033          DCB      0x35,0x44,0x30,0x33
001274  42423543          DCB      0x42,0x42,0x35,0x43
001278  39423838          DCB      0x39,0x42,0x38,0x38
00127c  39394334          DCB      0x39,0x39,0x43,0x34
001280  37414542          DCB      0x37,0x41,0x45,0x42
001284  42364642          DCB      0x42,0x36,0x46,0x42
001288  37314539          DCB      0x37,0x31,0x45,0x39
00128c  31333836          DCB      0x31,0x33,0x38,0x36
001290  34303900          DCB      0x34,0x30,0x39,0x00
                          %        44
                          DCD      0x00000209
                          DCD      0x00000020
                          DCD      0x00000020
                          DCD      0x00000020
                          DCD      0x00000000
0012d4  0a000000          DCB      0x0a,0x00,0x00,0x00
                          DCD      0x00000029
0012dc  30303030          DCB      0x30,0x30,0x30,0x30
0012e0  30303030          DCB      0x30,0x30,0x30,0x30
0012e4  30303030          DCB      0x30,0x30,0x30,0x30
0012e8  30303030          DCB      0x30,0x30,0x30,0x30
0012ec  30303030          DCB      0x30,0x30,0x30,0x30
0012f0  30303030          DCB      0x30,0x30,0x30,0x30
0012f4  30303030          DCB      0x30,0x30,0x30,0x30
0012f8  30303030          DCB      0x30,0x30,0x30,0x30
0012fc  30303030          DCB      0x30,0x30,0x30,0x30
001300  30303030          DCB      0x30,0x30,0x30,0x30
001304  31000000          DCB      0x31,0x00,0x00,0x00
                          %        100
00136c  32306136          DCB      0x32,0x30,0x61,0x36
001370  30313930          DCB      0x30,0x31,0x39,0x30
001374  37623863          DCB      0x37,0x62,0x38,0x63
001378  39353363          DCB      0x39,0x35,0x33,0x63
00137c  61313438          DCB      0x61,0x31,0x34,0x38
001380  31656231          DCB      0x31,0x65,0x62,0x31
001384  30353132          DCB      0x30,0x35,0x31,0x32
001388  66373837          DCB      0x66,0x37,0x38,0x37
00138c  34346133          DCB      0x34,0x34,0x61,0x33
001390  32303566          DCB      0x32,0x30,0x35,0x66
001394  64000000          DCB      0x64,0x00,0x00,0x00
                          %        100
0013fc  33663065          DCB      0x33,0x66,0x30,0x65
001400  62613136          DCB      0x62,0x61,0x31,0x36
001404  32383661          DCB      0x32,0x38,0x36,0x61
001408  32643537          DCB      0x32,0x64,0x35,0x37
00140c  65613039          DCB      0x65,0x61,0x30,0x39
001410  39313136          DCB      0x39,0x31,0x31,0x36
001414  38643439          DCB      0x38,0x64,0x34,0x39
001418  39343633          DCB      0x39,0x34,0x36,0x33
00141c  37653833          DCB      0x37,0x65,0x38,0x33
001420  34336533          DCB      0x34,0x33,0x65,0x33
001424  36000000          DCB      0x36,0x00,0x00,0x00
                          %        100
00148c  30643531          DCB      0x30,0x64,0x35,0x31
001490  66626336          DCB      0x66,0x62,0x63,0x36
001494  63373161          DCB      0x63,0x37,0x31,0x61
001498  30303934          DCB      0x30,0x30,0x39,0x34
00149c  66613263          DCB      0x66,0x61,0x32,0x63
0014a0  64643534          DCB      0x64,0x64,0x35,0x34
0014a4  35623131          DCB      0x35,0x62,0x31,0x31
0014a8  63356330          DCB      0x63,0x35,0x63,0x30
0014ac  63373937          DCB      0x63,0x37,0x39,0x37
0014b0  33323466          DCB      0x33,0x32,0x34,0x66
0014b4  31000000          DCB      0x31,0x00,0x00,0x00
                          %        100
                          DCD      0x00000044
001520  46464646          DCB      0x46,0x46,0x46,0x46
001524  46464646          DCB      0x46,0x46,0x46,0x46
001528  46464646          DCB      0x46,0x46,0x46,0x46
00152c  46464646          DCB      0x46,0x46,0x46,0x46
001530  46464646          DCB      0x46,0x46,0x46,0x46
001534  46464646          DCB      0x46,0x46,0x46,0x46
001538  46464646          DCB      0x46,0x46,0x46,0x46
00153c  46464646          DCB      0x46,0x46,0x46,0x46
001540  30303030          DCB      0x30,0x30,0x30,0x30
001544  30303030          DCB      0x30,0x30,0x30,0x30
001548  30303030          DCB      0x30,0x30,0x30,0x30
00154c  30303030          DCB      0x30,0x30,0x30,0x30
001550  30303030          DCB      0x30,0x30,0x30,0x30
001554  30303031          DCB      0x30,0x30,0x30,0x31
001558  00000000          DCB      0x00,0x00,0x00,0x00
                          %        116
                          DCD      0x00000031
0015d4  34303030          DCB      0x34,0x30,0x30,0x30
0015d8  30303030          DCB      0x30,0x30,0x30,0x30
0015dc  30303030          DCB      0x30,0x30,0x30,0x30
0015e0  30303030          DCB      0x30,0x30,0x30,0x30
0015e4  30303030          DCB      0x30,0x30,0x30,0x30
0015e8  32393246          DCB      0x32,0x39,0x32,0x46
0015ec  45373745          DCB      0x45,0x37,0x37,0x45
0015f0  37304331          DCB      0x37,0x30,0x43,0x31
0015f4  32413432          DCB      0x32,0x41,0x34,0x32
0015f8  33344333          DCB      0x33,0x34,0x43,0x33
0015fc  33000000          DCB      0x33,0x00,0x00,0x00
                          %        132
                          DCD      0x000000a3
                          DCD      0x00000007
                          DCD      0x00000006
                          DCD      0x00000003
                          DCD      0x00000001
001698  0b000000          DCB      0x0b,0x00,0x00,0x00
                          DCD      0x0000003b
0016a0  30303030          DCB      0x30,0x30,0x30,0x30
0016a4  30303030          DCB      0x30,0x30,0x30,0x30
0016a8  30303030          DCB      0x30,0x30,0x30,0x30
0016ac  30303030          DCB      0x30,0x30,0x30,0x30
0016b0  30303030          DCB      0x30,0x30,0x30,0x30
0016b4  30303030          DCB      0x30,0x30,0x30,0x30
0016b8  30303030          DCB      0x30,0x30,0x30,0x30
0016bc  30303030          DCB      0x30,0x30,0x30,0x30
0016c0  30303030          DCB      0x30,0x30,0x30,0x30
0016c4  30303030          DCB      0x30,0x30,0x30,0x30
0016c8  30303030          DCB      0x30,0x30,0x30,0x30
0016cc  30303030          DCB      0x30,0x30,0x30,0x30
0016d0  30303030          DCB      0x30,0x30,0x30,0x30
0016d4  30303030          DCB      0x30,0x30,0x30,0x30
0016d8  30303100          DCB      0x30,0x30,0x31,0x00
                          %        84
001730  30363636          DCB      0x30,0x36,0x36,0x36
001734  34376564          DCB      0x34,0x37,0x65,0x64
001738  65366333          DCB      0x65,0x36,0x63,0x33
00173c  33326337          DCB      0x33,0x32,0x63,0x37
001740  66386330          DCB      0x66,0x38,0x63,0x30
001744  39323362          DCB      0x39,0x32,0x33,0x62
001748  62353832          DCB      0x62,0x35,0x38,0x32
00174c  31336233          DCB      0x31,0x33,0x62,0x33
001750  33336232          DCB      0x33,0x33,0x62,0x32
001754  30653963          DCB      0x30,0x65,0x39,0x63
001758  65343238          DCB      0x65,0x34,0x32,0x38
00175c  31666531          DCB      0x31,0x66,0x65,0x31
001760  31356637          DCB      0x31,0x35,0x66,0x37
001764  64386639          DCB      0x64,0x38,0x66,0x39
001768  30616400          DCB      0x30,0x61,0x64,0x00
                          %        84
0017c0  30666163          DCB      0x30,0x66,0x61,0x63
0017c4  39646663          DCB      0x39,0x64,0x66,0x63
0017c8  62616338          DCB      0x62,0x61,0x63,0x38
0017cc  33313362          DCB      0x33,0x31,0x33,0x62
0017d0  62323133          DCB      0x62,0x32,0x31,0x33
0017d4  39663162          DCB      0x39,0x66,0x31,0x62
0017d8  62373535          DCB      0x62,0x37,0x35,0x35
0017dc  66656636          DCB      0x66,0x65,0x66,0x36
0017e0  35626333          DCB      0x35,0x62,0x63,0x33
0017e4  39316638          DCB      0x39,0x31,0x66,0x38
0017e8  62333666          DCB      0x62,0x33,0x36,0x66
0017ec  38663865          DCB      0x38,0x66,0x38,0x65
0017f0  62373337          DCB      0x62,0x37,0x33,0x37
0017f4  31666435          DCB      0x31,0x66,0x64,0x35
0017f8  35386200          DCB      0x35,0x38,0x62,0x00
                          %        84
001850  31303036          DCB      0x31,0x30,0x30,0x36
001854  61303861          DCB      0x61,0x30,0x38,0x61
001858  34313930          DCB      0x34,0x31,0x39,0x30
00185c  33333530          DCB      0x33,0x33,0x35,0x30
001860  36373865          DCB      0x36,0x37,0x38,0x65
001864  35383532          DCB      0x35,0x38,0x35,0x32
001868  38626562          DCB      0x38,0x62,0x65,0x62
00186c  66386130          DCB      0x66,0x38,0x61,0x30
001870  62656666          DCB      0x62,0x65,0x66,0x66
001874  38363761          DCB      0x38,0x36,0x37,0x61
001878  37636133          DCB      0x37,0x63,0x61,0x33
00187c  36373136          DCB      0x36,0x37,0x31,0x36
001880  66376530          DCB      0x66,0x37,0x65,0x30
001884  31663831          DCB      0x31,0x66,0x38,0x31
001888  30353200          DCB      0x30,0x35,0x32,0x00
                          %        84
                          DCD      0x00000044
0018e4  46464646          DCB      0x46,0x46,0x46,0x46
0018e8  46464646          DCB      0x46,0x46,0x46,0x46
0018ec  46464646          DCB      0x46,0x46,0x46,0x46
0018f0  46464646          DCB      0x46,0x46,0x46,0x46
0018f4  46464646          DCB      0x46,0x46,0x46,0x46
0018f8  46464646          DCB      0x46,0x46,0x46,0x46
0018fc  46464646          DCB      0x46,0x46,0x46,0x46
001900  46464646          DCB      0x46,0x46,0x46,0x46
001904  30303030          DCB      0x30,0x30,0x30,0x30
001908  30303030          DCB      0x30,0x30,0x30,0x30
00190c  30303030          DCB      0x30,0x30,0x30,0x30
001910  30303030          DCB      0x30,0x30,0x30,0x30
001914  30303030          DCB      0x30,0x30,0x30,0x30
001918  30303031          DCB      0x30,0x30,0x30,0x31
00191c  00000000          DCB      0x00,0x00,0x00,0x00
                          %        116
                          DCD      0x00000046
001998  31303030          DCB      0x31,0x30,0x30,0x30
00199c  30303030          DCB      0x30,0x30,0x30,0x30
0019a0  30303030          DCB      0x30,0x30,0x30,0x30
0019a4  30303030          DCB      0x30,0x30,0x30,0x30
0019a8  30303030          DCB      0x30,0x30,0x30,0x30
0019ac  30303030          DCB      0x30,0x30,0x30,0x30
0019b0  30303030          DCB      0x30,0x30,0x30,0x30
0019b4  30313345          DCB      0x30,0x31,0x33,0x45
0019b8  39373445          DCB      0x39,0x37,0x34,0x45
0019bc  37324638          DCB      0x37,0x32,0x46,0x38
0019c0  41363932          DCB      0x41,0x36,0x39,0x32
0019c4  32303331          DCB      0x32,0x30,0x33,0x31
0019c8  44323630          DCB      0x44,0x32,0x36,0x30
0019cc  33434645          DCB      0x33,0x43,0x46,0x45
0019d0  30443700          DCB      0x30,0x44,0x37,0x00
                          %        116
                          DCD      0x000000e9
                          DCD      0x0000004a
                          DCD      0x0000004a
                          DCD      0x0000004a
                          DCD      0x00000001
001a5c  0c000000          DCB      0x0c,0x00,0x00,0x00
                          DCD      0x00000047
001a64  30303030          DCB      0x30,0x30,0x30,0x30
001a68  30303030          DCB      0x30,0x30,0x30,0x30
001a6c  30303030          DCB      0x30,0x30,0x30,0x30
001a70  30303030          DCB      0x30,0x30,0x30,0x30
001a74  30303030          DCB      0x30,0x30,0x30,0x30
001a78  30303030          DCB      0x30,0x30,0x30,0x30
001a7c  30303030          DCB      0x30,0x30,0x30,0x30
001a80  30303030          DCB      0x30,0x30,0x30,0x30
001a84  30303030          DCB      0x30,0x30,0x30,0x30
001a88  30303030          DCB      0x30,0x30,0x30,0x30
001a8c  30303030          DCB      0x30,0x30,0x30,0x30
001a90  30303030          DCB      0x30,0x30,0x30,0x30
001a94  30303030          DCB      0x30,0x30,0x30,0x30
001a98  30303030          DCB      0x30,0x30,0x30,0x30
001a9c  30303030          DCB      0x30,0x30,0x30,0x30
001aa0  30303030          DCB      0x30,0x30,0x30,0x30
001aa4  30303030          DCB      0x30,0x30,0x30,0x30
001aa8  30303100          DCB      0x30,0x30,0x31,0x00
                          %        72
001af4  32376236          DCB      0x32,0x37,0x62,0x36
001af8  38306163          DCB      0x38,0x30,0x61,0x63
001afc  38623835          DCB      0x38,0x62,0x38,0x35
001b00  39366461          DCB      0x39,0x36,0x64,0x61
001b04  35613461          DCB      0x35,0x61,0x34,0x61
001b08  66386131          DCB      0x66,0x38,0x61,0x31
001b0c  39613033          DCB      0x39,0x61,0x30,0x33
001b10  30336663          DCB      0x30,0x33,0x66,0x63
001b14  61393766          DCB      0x61,0x39,0x37,0x66
001b18  64373634          DCB      0x64,0x37,0x36,0x34
001b1c  35333039          DCB      0x35,0x33,0x30,0x39
001b20  66613261          DCB      0x66,0x61,0x32,0x61
001b24  35383134          DCB      0x35,0x38,0x31,0x34
001b28  38356166          DCB      0x38,0x35,0x61,0x66
001b2c  36323633          DCB      0x36,0x32,0x36,0x33
001b30  65333133          DCB      0x65,0x33,0x31,0x33
001b34  62373961          DCB      0x62,0x37,0x39,0x61
001b38  32663500          DCB      0x32,0x66,0x35,0x00
                          %        72
001b84  35663933          DCB      0x35,0x66,0x39,0x33
001b88  39323538          DCB      0x39,0x32,0x35,0x38
001b8c  64623764          DCB      0x64,0x62,0x37,0x64
001b90  64393065          DCB      0x64,0x39,0x30,0x65
001b94  31393334          DCB      0x31,0x39,0x33,0x34
001b98  66386337          DCB      0x66,0x38,0x63,0x37
001b9c  30623064          DCB      0x30,0x62,0x30,0x64
001ba0  66656332          DCB      0x66,0x65,0x63,0x32
001ba4  65656432          DCB      0x65,0x65,0x64,0x32
001ba8  35623835          DCB      0x35,0x62,0x38,0x35
001bac  35376561          DCB      0x35,0x37,0x65,0x61
001bb0  63396338          DCB      0x63,0x39,0x63,0x38
001bb4  30653265          DCB      0x30,0x65,0x32,0x65
001bb8  31393866          DCB      0x31,0x39,0x38,0x66
001bbc  38636462          DCB      0x38,0x63,0x64,0x62
001bc0  65636438          DCB      0x65,0x63,0x64,0x38
001bc4  36623132          DCB      0x36,0x62,0x31,0x32
001bc8  30353300          DCB      0x30,0x35,0x33,0x00
                          %        72
001c14  33363736          DCB      0x33,0x36,0x37,0x36
001c18  38353466          DCB      0x38,0x35,0x34,0x66
001c1c  65323431          DCB      0x65,0x32,0x34,0x31
001c20  34316362          DCB      0x34,0x31,0x63,0x62
001c24  39386665          DCB      0x39,0x38,0x66,0x65
001c28  36643462          DCB      0x36,0x64,0x34,0x62
001c2c  32306430          DCB      0x32,0x30,0x64,0x30
001c30  32623435          DCB      0x32,0x62,0x34,0x35
001c34  31366666          DCB      0x31,0x36,0x66,0x66
001c38  37303233          DCB      0x37,0x30,0x32,0x33
001c3c  35306564          DCB      0x35,0x30,0x65,0x64
001c40  64623038          DCB      0x64,0x62,0x30,0x38
001c44  32363737          DCB      0x32,0x36,0x37,0x37
001c48  39633831          DCB      0x39,0x63,0x38,0x31
001c4c  33663064          DCB      0x33,0x66,0x30,0x64
001c50  66343562          DCB      0x66,0x34,0x35,0x62
001c54  65383131          DCB      0x65,0x38,0x31,0x31
001c58  32663400          DCB      0x32,0x66,0x34,0x00
                          %        72
                          DCD      0x00000044
001ca8  46464646          DCB      0x46,0x46,0x46,0x46
001cac  46464646          DCB      0x46,0x46,0x46,0x46
001cb0  46464646          DCB      0x46,0x46,0x46,0x46
001cb4  46464646          DCB      0x46,0x46,0x46,0x46
001cb8  46464646          DCB      0x46,0x46,0x46,0x46
001cbc  46464646          DCB      0x46,0x46,0x46,0x46
001cc0  46464646          DCB      0x46,0x46,0x46,0x46
001cc4  46464646          DCB      0x46,0x46,0x46,0x46
001cc8  30303030          DCB      0x30,0x30,0x30,0x30
001ccc  30303030          DCB      0x30,0x30,0x30,0x30
001cd0  30303030          DCB      0x30,0x30,0x30,0x30
001cd4  30303030          DCB      0x30,0x30,0x30,0x30
001cd8  30303030          DCB      0x30,0x30,0x30,0x30
001cdc  30303031          DCB      0x30,0x30,0x30,0x31
001ce0  00000000          DCB      0x00,0x00,0x00,0x00
                          %        116
                          DCD      0x00000055
001d5c  33464646          DCB      0x33,0x46,0x46,0x46
001d60  46464646          DCB      0x46,0x46,0x46,0x46
001d64  46464646          DCB      0x46,0x46,0x46,0x46
001d68  46464646          DCB      0x46,0x46,0x46,0x46
001d6c  46464646          DCB      0x46,0x46,0x46,0x46
001d70  46464646          DCB      0x46,0x46,0x46,0x46
001d74  46464646          DCB      0x46,0x46,0x46,0x46
001d78  46464646          DCB      0x46,0x46,0x46,0x46
001d7c  46464645          DCB      0x46,0x46,0x46,0x45
001d80  46393033          DCB      0x46,0x39,0x30,0x33
001d84  39393636          DCB      0x39,0x39,0x36,0x36
001d88  30464339          DCB      0x30,0x46,0x43,0x39
001d8c  33384139          DCB      0x33,0x38,0x41,0x39
001d90  30313635          DCB      0x30,0x31,0x36,0x35
001d94  42303432          DCB      0x42,0x30,0x34,0x32
001d98  41374345          DCB      0x41,0x37,0x43,0x45
001d9c  46414442          DCB      0x46,0x41,0x44,0x42
001da0  33303700          DCB      0x33,0x30,0x37,0x00
                          %        104
                          DCD      0x0000011b
                          DCD      0x0000000c
                          DCD      0x00000007
                          DCD      0x00000005
                          DCD      0x00000001
001e20  0d000000          DCB      0x0d,0x00,0x00,0x00
                          DCD      0x00000067
001e28  30303030          DCB      0x30,0x30,0x30,0x30
001e2c  30303030          DCB      0x30,0x30,0x30,0x30
001e30  30303030          DCB      0x30,0x30,0x30,0x30
001e34  30303030          DCB      0x30,0x30,0x30,0x30
001e38  30303030          DCB      0x30,0x30,0x30,0x30
001e3c  30303030          DCB      0x30,0x30,0x30,0x30
001e40  30303030          DCB      0x30,0x30,0x30,0x30
001e44  30303030          DCB      0x30,0x30,0x30,0x30
001e48  30303030          DCB      0x30,0x30,0x30,0x30
001e4c  30303030          DCB      0x30,0x30,0x30,0x30
001e50  30303030          DCB      0x30,0x30,0x30,0x30
001e54  30303030          DCB      0x30,0x30,0x30,0x30
001e58  30303030          DCB      0x30,0x30,0x30,0x30
001e5c  30303030          DCB      0x30,0x30,0x30,0x30
001e60  30303030          DCB      0x30,0x30,0x30,0x30
001e64  30303030          DCB      0x30,0x30,0x30,0x30
001e68  30303030          DCB      0x30,0x30,0x30,0x30
001e6c  30303030          DCB      0x30,0x30,0x30,0x30
001e70  30303030          DCB      0x30,0x30,0x30,0x30
001e74  30303030          DCB      0x30,0x30,0x30,0x30
001e78  30303030          DCB      0x30,0x30,0x30,0x30
001e7c  30303030          DCB      0x30,0x30,0x30,0x30
001e80  30303030          DCB      0x30,0x30,0x30,0x30
001e84  30303030          DCB      0x30,0x30,0x30,0x30
001e88  30303030          DCB      0x30,0x30,0x30,0x30
001e8c  30303100          DCB      0x30,0x30,0x31,0x00
                          %        40
001eb8  30323161          DCB      0x30,0x32,0x31,0x61
001ebc  35633263          DCB      0x35,0x63,0x32,0x63
001ec0  38656539          DCB      0x38,0x65,0x65,0x39
001ec4  66656235          DCB      0x66,0x65,0x62,0x35
001ec8  63346239          DCB      0x63,0x34,0x62,0x39
001ecc  61373533          DCB      0x61,0x37,0x35,0x33
001ed0  62376234          DCB      0x62,0x37,0x62,0x34
001ed4  37366237          DCB      0x37,0x36,0x62,0x37
001ed8  66643634          DCB      0x66,0x64,0x36,0x34
001edc  32326566          DCB      0x32,0x32,0x65,0x66
001ee0  31663364          DCB      0x31,0x66,0x33,0x64
001ee4  64363734          DCB      0x64,0x36,0x37,0x34
001ee8  37363166          DCB      0x37,0x36,0x31,0x66
001eec  61393964          DCB      0x61,0x39,0x39,0x64
001ef0  36616332          DCB      0x36,0x61,0x63,0x32
001ef4  37633861          DCB      0x37,0x63,0x38,0x61
001ef8  39613139          DCB      0x39,0x61,0x31,0x39
001efc  37623237          DCB      0x37,0x62,0x32,0x37
001f00  32383232          DCB      0x32,0x38,0x32,0x32
001f04  66366364          DCB      0x66,0x36,0x63,0x64
001f08  35376135          DCB      0x35,0x37,0x61,0x35
001f0c  35616134          DCB      0x35,0x61,0x61,0x34
001f10  66353061          DCB      0x66,0x35,0x30,0x61
001f14  65333137          DCB      0x65,0x33,0x31,0x37
001f18  62313335          DCB      0x62,0x31,0x33,0x35
001f1c  34356600          DCB      0x34,0x35,0x66,0x00
                          %        40
001f48  31356434          DCB      0x31,0x35,0x64,0x34
001f4c  38363064          DCB      0x38,0x36,0x30,0x64
001f50  30383864          DCB      0x30,0x38,0x38,0x64
001f54  64623334          DCB      0x64,0x62,0x33,0x34
001f58  39366230          DCB      0x39,0x36,0x62,0x30
001f5c  63363036          DCB      0x63,0x36,0x30,0x36
001f60  34373536          DCB      0x34,0x37,0x35,0x36
001f64  32363034          DCB      0x32,0x36,0x30,0x34
001f68  34316364          DCB      0x34,0x31,0x63,0x64
001f6c  65346166          DCB      0x65,0x34,0x61,0x66
001f70  31373731          DCB      0x31,0x37,0x37,0x31
001f74  64346462          DCB      0x64,0x34,0x64,0x62
001f78  30316666          DCB      0x30,0x31,0x66,0x66
001f7c  65356233          DCB      0x65,0x35,0x62,0x33
001f80  34653539          DCB      0x34,0x65,0x35,0x39
001f84  37303364          DCB      0x37,0x30,0x33,0x64
001f88  63323535          DCB      0x63,0x32,0x35,0x35
001f8c  61383638          DCB      0x61,0x38,0x36,0x38
001f90  61313138          DCB      0x61,0x31,0x31,0x38
001f94  30353135          DCB      0x30,0x35,0x31,0x35
001f98  36303361          DCB      0x36,0x30,0x33,0x61
001f9c  65616236          DCB      0x65,0x61,0x62,0x36
001fa0  30373934          DCB      0x30,0x37,0x39,0x34
001fa4  65353462          DCB      0x65,0x35,0x34,0x62
001fa8  62373939          DCB      0x62,0x37,0x39,0x39
001fac  36613700          DCB      0x36,0x61,0x37,0x00
                          %        40
001fd8  30363162          DCB      0x30,0x36,0x31,0x62
001fdc  31636661          DCB      0x31,0x63,0x66,0x61
001fe0  62366265          DCB      0x62,0x36,0x62,0x65
001fe4  35663332          DCB      0x35,0x66,0x33,0x32
001fe8  62626661          DCB      0x62,0x62,0x66,0x61
001fec  37383332          DCB      0x37,0x38,0x33,0x32
001ff0  34656431          DCB      0x34,0x65,0x64,0x31
001ff4  30366137          DCB      0x30,0x36,0x61,0x37
001ff8  36333662          DCB      0x36,0x33,0x36,0x62
001ffc  39633561          DCB      0x39,0x63,0x35,0x61
002000  37626431          DCB      0x37,0x62,0x64,0x31
002004  39386430          DCB      0x39,0x38,0x64,0x30
002008  31353861          DCB      0x31,0x35,0x38,0x61
00200c  61346635          DCB      0x61,0x34,0x66,0x35
002010  34383864          DCB      0x34,0x38,0x38,0x64
002014  30386633          DCB      0x30,0x38,0x66,0x33
002018  38353134          DCB      0x38,0x35,0x31,0x34
00201c  66316664          DCB      0x66,0x31,0x66,0x64
002020  66346234          DCB      0x66,0x34,0x62,0x34
002024  66343064          DCB      0x66,0x34,0x30,0x64
002028  32313831          DCB      0x32,0x31,0x38,0x31
00202c  62333638          DCB      0x62,0x33,0x36,0x38
002030  31633336          DCB      0x31,0x63,0x33,0x36
002034  34626130          DCB      0x34,0x62,0x61,0x30
002038  32373363          DCB      0x32,0x37,0x33,0x63
00203c  37303600          DCB      0x37,0x30,0x36,0x00
                          %        40
                          DCD      0x00000044
00206c  46464646          DCB      0x46,0x46,0x46,0x46
002070  46464646          DCB      0x46,0x46,0x46,0x46
002074  46464646          DCB      0x46,0x46,0x46,0x46
002078  46464646          DCB      0x46,0x46,0x46,0x46
00207c  46464646          DCB      0x46,0x46,0x46,0x46
002080  46464646          DCB      0x46,0x46,0x46,0x46
002084  46464646          DCB      0x46,0x46,0x46,0x46
002088  46464646          DCB      0x46,0x46,0x46,0x46
00208c  30303030          DCB      0x30,0x30,0x30,0x30
002090  30303030          DCB      0x30,0x30,0x30,0x30
002094  30303030          DCB      0x30,0x30,0x30,0x30
002098  30303030          DCB      0x30,0x30,0x30,0x30
00209c  30303030          DCB      0x30,0x30,0x30,0x30
0020a0  30303031          DCB      0x30,0x30,0x30,0x31
0020a4  00000000          DCB      0x00,0x00,0x00,0x00
                          %        116
                          DCD      0x0000007b
002120  31303030          DCB      0x31,0x30,0x30,0x30
002124  30303030          DCB      0x30,0x30,0x30,0x30
002128  30303030          DCB      0x30,0x30,0x30,0x30
00212c  30303030          DCB      0x30,0x30,0x30,0x30
002130  30303030          DCB      0x30,0x30,0x30,0x30
002134  30303030          DCB      0x30,0x30,0x30,0x30
002138  30303030          DCB      0x30,0x30,0x30,0x30
00213c  30303030          DCB      0x30,0x30,0x30,0x30
002140  30303030          DCB      0x30,0x30,0x30,0x30
002144  30303030          DCB      0x30,0x30,0x30,0x30
002148  30303030          DCB      0x30,0x30,0x30,0x30
00214c  30303030          DCB      0x30,0x30,0x30,0x30
002150  30303030          DCB      0x30,0x30,0x30,0x30
002154  31453241          DCB      0x31,0x45,0x32,0x41
002158  41443641          DCB      0x41,0x44,0x36,0x41
00215c  36313246          DCB      0x36,0x31,0x32,0x46
002160  33333330          DCB      0x33,0x33,0x33,0x30
002164  37424535          DCB      0x37,0x42,0x45,0x35
002168  46413437          DCB      0x46,0x41,0x34,0x37
00216c  43334339          DCB      0x43,0x33,0x43,0x39
002170  45303532          DCB      0x45,0x30,0x35,0x32
002174  46383338          DCB      0x46,0x38,0x33,0x38
002178  31363443          DCB      0x31,0x36,0x34,0x43
00217c  44333744          DCB      0x44,0x33,0x37,0x44
002180  39413231          DCB      0x39,0x41,0x32,0x31
002184  31373300          DCB      0x31,0x37,0x33,0x00
                          %        72
                          DCD      0x00000199
                          DCD      0x00000057
                          DCD      0x00000057
                          DCD      0x00000057
                          DCD      0x00000001
0021e4  0e000000          DCB      0x0e,0x00,0x00,0x00
                          DCD      0x0000008f
0021ec  30303030          DCB      0x30,0x30,0x30,0x30
0021f0  30303030          DCB      0x30,0x30,0x30,0x30
0021f4  30303030          DCB      0x30,0x30,0x30,0x30
0021f8  30303030          DCB      0x30,0x30,0x30,0x30
0021fc  30303030          DCB      0x30,0x30,0x30,0x30
002200  30303030          DCB      0x30,0x30,0x30,0x30
002204  30303030          DCB      0x30,0x30,0x30,0x30
002208  30303030          DCB      0x30,0x30,0x30,0x30
00220c  30303030          DCB      0x30,0x30,0x30,0x30
002210  30303030          DCB      0x30,0x30,0x30,0x30
002214  30303030          DCB      0x30,0x30,0x30,0x30
002218  30303030          DCB      0x30,0x30,0x30,0x30
00221c  30303030          DCB      0x30,0x30,0x30,0x30
002220  30303030          DCB      0x30,0x30,0x30,0x30
002224  30303030          DCB      0x30,0x30,0x30,0x30
002228  30303030          DCB      0x30,0x30,0x30,0x30
00222c  30303030          DCB      0x30,0x30,0x30,0x30
002230  30303030          DCB      0x30,0x30,0x30,0x30
002234  30303030          DCB      0x30,0x30,0x30,0x30
002238  30303030          DCB      0x30,0x30,0x30,0x30
00223c  30303030          DCB      0x30,0x30,0x30,0x30
002240  30303030          DCB      0x30,0x30,0x30,0x30
002244  30303030          DCB      0x30,0x30,0x30,0x30
002248  30303030          DCB      0x30,0x30,0x30,0x30
00224c  30303030          DCB      0x30,0x30,0x30,0x30
002250  30303030          DCB      0x30,0x30,0x30,0x30
002254  30303030          DCB      0x30,0x30,0x30,0x30
002258  30303030          DCB      0x30,0x30,0x30,0x30
00225c  30303030          DCB      0x30,0x30,0x30,0x30
002260  30303030          DCB      0x30,0x30,0x30,0x30
002264  30303030          DCB      0x30,0x30,0x30,0x30
002268  30303030          DCB      0x30,0x30,0x30,0x30
00226c  30303030          DCB      0x30,0x30,0x30,0x30
002270  30303030          DCB      0x30,0x30,0x30,0x30
002274  30303030          DCB      0x30,0x30,0x30,0x30
002278  30303100          DCB      0x30,0x30,0x31,0x00
00227c  32663430          DCB      0x32,0x66,0x34,0x30
002280  65376532          DCB      0x65,0x37,0x65,0x32
002284  32323166          DCB      0x32,0x32,0x31,0x66
002288  32393564          DCB      0x32,0x39,0x35,0x64
00228c  65323937          DCB      0x65,0x32,0x39,0x37
002290  31313762          DCB      0x31,0x31,0x37,0x62
002294  37663364          DCB      0x37,0x66,0x33,0x64
002298  36326635          DCB      0x36,0x32,0x66,0x35
00229c  63366139          DCB      0x63,0x36,0x61,0x39
0022a0  37666663          DCB      0x37,0x66,0x66,0x63
0022a4  62386365          DCB      0x62,0x38,0x63,0x65
0022a8  66663163          DCB      0x66,0x66,0x31,0x63
0022ac  64366261          DCB      0x64,0x36,0x62,0x61
0022b0  38636534          DCB      0x38,0x63,0x65,0x34
0022b4  61396131          DCB      0x61,0x39,0x61,0x31
0022b8  38616438          DCB      0x38,0x61,0x64,0x38
0022bc  34666661          DCB      0x34,0x66,0x66,0x61
0022c0  62626438          DCB      0x62,0x62,0x64,0x38
0022c4  65666135          DCB      0x65,0x66,0x61,0x35
0022c8  39333332          DCB      0x39,0x33,0x33,0x32
0022cc  62653761          DCB      0x62,0x65,0x37,0x61
0022d0  64363735          DCB      0x64,0x36,0x37,0x35
0022d4  36613636          DCB      0x36,0x61,0x36,0x36
0022d8  65323934          DCB      0x65,0x32,0x39,0x34
0022dc  61666431          DCB      0x61,0x66,0x64,0x31
0022e0  38356137          DCB      0x38,0x35,0x61,0x37
0022e4  38666631          DCB      0x38,0x66,0x66,0x31
0022e8  32616135          DCB      0x32,0x61,0x61,0x35
0022ec  32306534          DCB      0x32,0x30,0x65,0x34
0022f0  64653733          DCB      0x64,0x65,0x37,0x33
0022f4  39626163          DCB      0x39,0x62,0x61,0x63
0022f8  61306337          DCB      0x61,0x30,0x63,0x37
0022fc  66666566          DCB      0x66,0x66,0x65,0x66
002300  66376632          DCB      0x66,0x37,0x66,0x32
002304  39353537          DCB      0x39,0x35,0x35,0x37
002308  32376100          DCB      0x32,0x37,0x61,0x00
00230c  33303330          DCB      0x33,0x30,0x33,0x30
002310  30316433          DCB      0x30,0x31,0x64,0x33
002314  34623835          DCB      0x34,0x62,0x38,0x35
002318  36323936          DCB      0x36,0x32,0x39,0x36
00231c  63313663          DCB      0x63,0x31,0x36,0x63
002320  30643430          DCB      0x30,0x64,0x34,0x30
002324  64336364          DCB      0x64,0x33,0x63,0x64
002328  37373530          DCB      0x37,0x37,0x35,0x30
00232c  61393364          DCB      0x61,0x39,0x33,0x64
002330  31643239          DCB      0x31,0x64,0x32,0x39
002334  35356661          DCB      0x35,0x35,0x66,0x61
002338  38306161          DCB      0x38,0x30,0x61,0x61
00233c  35663430          DCB      0x35,0x66,0x34,0x30
002340  66633864          DCB      0x66,0x63,0x38,0x64
002344  62376232          DCB      0x62,0x37,0x62,0x32
002348  61626462          DCB      0x61,0x62,0x64,0x62
00234c  64653533          DCB      0x64,0x65,0x35,0x33
002350  39353066          DCB      0x39,0x35,0x30,0x66
002354  34633064          DCB      0x34,0x63,0x30,0x64
002358  32393363          DCB      0x32,0x39,0x33,0x63
00235c  64643731          DCB      0x64,0x64,0x37,0x31
002360  31613335          DCB      0x31,0x61,0x33,0x35
002364  62363766          DCB      0x62,0x36,0x37,0x66
002368  62313439          DCB      0x62,0x31,0x34,0x39
00236c  39616536          DCB      0x39,0x61,0x65,0x36
002370  30303338          DCB      0x30,0x30,0x33,0x38
002374  36313466          DCB      0x36,0x31,0x34,0x66
002378  31333934          DCB      0x31,0x33,0x39,0x34
00237c  61626661          DCB      0x61,0x62,0x66,0x61
002380  33623463          DCB      0x33,0x62,0x34,0x63
002384  38353064          DCB      0x38,0x35,0x30,0x64
002388  39323765          DCB      0x39,0x32,0x37,0x65
00238c  31653737          DCB      0x31,0x65,0x37,0x37
002390  36396338          DCB      0x36,0x39,0x63,0x38
002394  65656332          DCB      0x65,0x65,0x63,0x32
002398  64313900          DCB      0x64,0x31,0x39,0x00
00239c  33376266          DCB      0x33,0x37,0x62,0x66
0023a0  32373334          DCB      0x32,0x37,0x33,0x34
0023a4  32646136          DCB      0x32,0x64,0x61,0x36
0023a8  33396236          DCB      0x33,0x39,0x62,0x36
0023ac  64636366          DCB      0x64,0x63,0x63,0x66
0023b0  66666562          DCB      0x66,0x66,0x65,0x62
0023b4  37336436          DCB      0x37,0x33,0x64,0x36
0023b8  39643738          DCB      0x39,0x64,0x37,0x38
0023bc  63366332          DCB      0x63,0x36,0x63,0x32
0023c0  37613630          DCB      0x37,0x61,0x36,0x30
0023c4  30396362          DCB      0x30,0x39,0x63,0x62
0023c8  62636131          DCB      0x62,0x63,0x61,0x31
0023cc  39383066          DCB      0x39,0x38,0x30,0x66
0023d0  38353333          DCB      0x38,0x35,0x33,0x33
0023d4  39323165          DCB      0x39,0x32,0x31,0x65
0023d8  38613638          DCB      0x38,0x61,0x36,0x38
0023dc  34343233          DCB      0x34,0x34,0x32,0x33
0023e0  65343362          DCB      0x65,0x34,0x33,0x62
0023e4  61623038          DCB      0x61,0x62,0x30,0x38
0023e8  61353736          DCB      0x61,0x35,0x37,0x36
0023ec  32393161          DCB      0x32,0x39,0x31,0x61
0023f0  66386634          DCB      0x66,0x38,0x66,0x34
0023f4  36316262          DCB      0x36,0x31,0x62,0x62
0023f8  32613862          DCB      0x32,0x61,0x38,0x62
0023fc  33353331          DCB      0x33,0x35,0x33,0x31
002400  64326630          DCB      0x64,0x32,0x66,0x30
002404  34383563          DCB      0x34,0x38,0x35,0x63
002408  31396231          DCB      0x31,0x39,0x62,0x31
00240c  36653266          DCB      0x36,0x65,0x32,0x66
002410  31353136          DCB      0x31,0x35,0x31,0x36
002414  65323364          DCB      0x65,0x32,0x33,0x64
002418  64336331          DCB      0x64,0x33,0x63,0x31
00241c  61343832          DCB      0x61,0x34,0x38,0x32
002420  37616631          DCB      0x37,0x61,0x66,0x31
002424  62386163          DCB      0x62,0x38,0x61,0x63
002428  31356200          DCB      0x31,0x35,0x62,0x00
                          DCD      0x00000044
002430  46464646          DCB      0x46,0x46,0x46,0x46
002434  46464646          DCB      0x46,0x46,0x46,0x46
002438  46464646          DCB      0x46,0x46,0x46,0x46
00243c  46464646          DCB      0x46,0x46,0x46,0x46
002440  46464646          DCB      0x46,0x46,0x46,0x46
002444  46464646          DCB      0x46,0x46,0x46,0x46
002448  46464646          DCB      0x46,0x46,0x46,0x46
00244c  46464646          DCB      0x46,0x46,0x46,0x46
002450  30303030          DCB      0x30,0x30,0x30,0x30
002454  30303030          DCB      0x30,0x30,0x30,0x30
002458  30303030          DCB      0x30,0x30,0x30,0x30
00245c  30303030          DCB      0x30,0x30,0x30,0x30
002460  30303030          DCB      0x30,0x30,0x30,0x30
002464  30303031          DCB      0x30,0x30,0x30,0x31
002468  00000000          DCB      0x00,0x00,0x00,0x00
                          %        116
                          DCD      0x000000ac
0024e4  33464646          DCB      0x33,0x46,0x46,0x46
0024e8  46464646          DCB      0x46,0x46,0x46,0x46
0024ec  46464646          DCB      0x46,0x46,0x46,0x46
0024f0  46464646          DCB      0x46,0x46,0x46,0x46
0024f4  46464646          DCB      0x46,0x46,0x46,0x46
0024f8  46464646          DCB      0x46,0x46,0x46,0x46
0024fc  46464646          DCB      0x46,0x46,0x46,0x46
002500  46464646          DCB      0x46,0x46,0x46,0x46
002504  46464646          DCB      0x46,0x46,0x46,0x46
002508  46464646          DCB      0x46,0x46,0x46,0x46
00250c  46464646          DCB      0x46,0x46,0x46,0x46
002510  46464646          DCB      0x46,0x46,0x46,0x46
002514  46464646          DCB      0x46,0x46,0x46,0x46
002518  46464646          DCB      0x46,0x46,0x46,0x46
00251c  46464646          DCB      0x46,0x46,0x46,0x46
002520  46464646          DCB      0x46,0x46,0x46,0x46
002524  46464646          DCB      0x46,0x46,0x46,0x46
002528  46464645          DCB      0x46,0x46,0x46,0x45
00252c  36363143          DCB      0x36,0x36,0x31,0x43
002530  45313846          DCB      0x45,0x31,0x38,0x46
002534  46353539          DCB      0x46,0x35,0x35,0x39
002538  38373330          DCB      0x38,0x37,0x33,0x30
00253c  38303539          DCB      0x38,0x30,0x35,0x39
002540  42313836          DCB      0x42,0x31,0x38,0x36
002544  38323338          DCB      0x38,0x32,0x33,0x38
002548  35314543          DCB      0x35,0x31,0x45,0x43
00254c  37444439          DCB      0x37,0x44,0x44,0x39
002550  43413131          DCB      0x43,0x41,0x31,0x31
002554  36314445          DCB      0x36,0x31,0x44,0x45
002558  39334435          DCB      0x39,0x33,0x44,0x35
00255c  31373444          DCB      0x31,0x37,0x34,0x44
002560  36364538          DCB      0x36,0x36,0x45,0x38
002564  33383245          DCB      0x33,0x38,0x32,0x45
002568  39424232          DCB      0x39,0x42,0x42,0x32
00256c  46453834          DCB      0x46,0x45,0x38,0x34
002570  45343700          DCB      0x45,0x34,0x37,0x00
                          %        32
                          DCD      0x0000023b
                          DCD      0x0000000a
                          DCD      0x00000005
                          DCD      0x00000002
                          DCD      0x00000001
0025a8  05000000          DCB      0x05,0x00,0x00,0x00
                          DCD      0x00000029
0025b0  30303030          DCB      0x30,0x30,0x30,0x30
0025b4  30303030          DCB      0x30,0x30,0x30,0x30
0025b8  30303030          DCB      0x30,0x30,0x30,0x30
0025bc  30303030          DCB      0x30,0x30,0x30,0x30
0025c0  30303030          DCB      0x30,0x30,0x30,0x30
0025c4  30303030          DCB      0x30,0x30,0x30,0x30
0025c8  30303030          DCB      0x30,0x30,0x30,0x30
0025cc  30303030          DCB      0x30,0x30,0x30,0x30
0025d0  30303030          DCB      0x30,0x30,0x30,0x30
0025d4  30303030          DCB      0x30,0x30,0x30,0x30
0025d8  31000000          DCB      0x31,0x00,0x00,0x00
                          %        100
002640  30303030          DCB      0x30,0x30,0x30,0x30
002644  30303030          DCB      0x30,0x30,0x30,0x30
002648  30303030          DCB      0x30,0x30,0x30,0x30
00264c  30303030          DCB      0x30,0x30,0x30,0x30
002650  30303030          DCB      0x30,0x30,0x30,0x30
002654  30303030          DCB      0x30,0x30,0x30,0x30
002658  30303030          DCB      0x30,0x30,0x30,0x30
00265c  30303030          DCB      0x30,0x30,0x30,0x30
002660  30303030          DCB      0x30,0x30,0x30,0x30
002664  30303030          DCB      0x30,0x30,0x30,0x30
002668  31000000          DCB      0x31,0x00,0x00,0x00
                          %        100
0026d0  32666531          DCB      0x32,0x66,0x65,0x31
0026d4  33633035          DCB      0x33,0x63,0x30,0x35
0026d8  33376262          DCB      0x33,0x37,0x62,0x62
0026dc  63313161          DCB      0x63,0x31,0x31,0x61
0026e0  63616130          DCB      0x63,0x61,0x61,0x30
0026e4  37643739          DCB      0x37,0x64,0x37,0x39
0026e8  33646534          DCB      0x33,0x64,0x65,0x34
0026ec  65366435          DCB      0x65,0x36,0x64,0x35
0026f0  65356339          DCB      0x65,0x35,0x63,0x39
0026f4  34656565          DCB      0x34,0x65,0x65,0x65
0026f8  38000000          DCB      0x38,0x00,0x00,0x00
                          %        100
002760  32383930          DCB      0x32,0x38,0x39,0x30
002764  37306662          DCB      0x37,0x30,0x66,0x62
002768  30356433          DCB      0x30,0x35,0x64,0x33
00276c  38666635          DCB      0x38,0x66,0x66,0x35
002770  38333231          DCB      0x38,0x33,0x32,0x31
002774  66326538          DCB      0x66,0x32,0x65,0x38
002778  30303533          DCB      0x30,0x30,0x35,0x33
00277c  36643533          DCB      0x36,0x64,0x35,0x33
002780  38636364          DCB      0x38,0x63,0x63,0x64
002784  61613364          DCB      0x61,0x61,0x33,0x64
002788  39000000          DCB      0x39,0x00,0x00,0x00
                          %        100
                          DCD      0x00000044
0027f4  46464646          DCB      0x46,0x46,0x46,0x46
0027f8  46464646          DCB      0x46,0x46,0x46,0x46
0027fc  46464646          DCB      0x46,0x46,0x46,0x46
002800  46464646          DCB      0x46,0x46,0x46,0x46
002804  46464646          DCB      0x46,0x46,0x46,0x46
002808  46464646          DCB      0x46,0x46,0x46,0x46
00280c  46464646          DCB      0x46,0x46,0x46,0x46
002810  46464646          DCB      0x46,0x46,0x46,0x46
002814  30303030          DCB      0x30,0x30,0x30,0x30
002818  30303030          DCB      0x30,0x30,0x30,0x30
00281c  30303030          DCB      0x30,0x30,0x30,0x30
002820  30303030          DCB      0x30,0x30,0x30,0x30
002824  30303030          DCB      0x30,0x30,0x30,0x30
002828  30303031          DCB      0x30,0x30,0x30,0x31
00282c  00000000          DCB      0x00,0x00,0x00,0x00
                          %        116
                          DCD      0x00000031
0028a8  34303030          DCB      0x34,0x30,0x30,0x30
0028ac  30303030          DCB      0x30,0x30,0x30,0x30
0028b0  30303030          DCB      0x30,0x30,0x30,0x30
0028b4  30303030          DCB      0x30,0x30,0x30,0x30
0028b8  30303030          DCB      0x30,0x30,0x30,0x30
0028bc  32303130          DCB      0x32,0x30,0x31,0x30
0028c0  38413245          DCB      0x38,0x41,0x32,0x45
0028c4  30434330          DCB      0x30,0x43,0x43,0x30
0028c8  44393946          DCB      0x44,0x39,0x39,0x46
0028cc  38413545          DCB      0x38,0x41,0x35,0x45
0028d0  46000000          DCB      0x46,0x00,0x00,0x00
                          %        132
                          DCD      0x000000a3
                          DCD      0x00000007
                          DCD      0x00000006
                          DCD      0x00000003
                          DCD      0x00000001
00296c  06000000          DCB      0x06,0x00,0x00,0x00
                          DCD      0x0000003b
002974  30303030          DCB      0x30,0x30,0x30,0x30
002978  30303030          DCB      0x30,0x30,0x30,0x30
00297c  30303030          DCB      0x30,0x30,0x30,0x30
002980  30303030          DCB      0x30,0x30,0x30,0x30
002984  30303030          DCB      0x30,0x30,0x30,0x30
002988  30303030          DCB      0x30,0x30,0x30,0x30
00298c  30303030          DCB      0x30,0x30,0x30,0x30
002990  30303030          DCB      0x30,0x30,0x30,0x30
002994  30303030          DCB      0x30,0x30,0x30,0x30
002998  30303030          DCB      0x30,0x30,0x30,0x30
00299c  30303030          DCB      0x30,0x30,0x30,0x30
0029a0  30303030          DCB      0x30,0x30,0x30,0x30
0029a4  30303030          DCB      0x30,0x30,0x30,0x30
0029a8  30303030          DCB      0x30,0x30,0x30,0x30
0029ac  30303000          DCB      0x30,0x30,0x30,0x00
                          %        84
002a04  30303030          DCB      0x30,0x30,0x30,0x30
002a08  30303030          DCB      0x30,0x30,0x30,0x30
002a0c  30303030          DCB      0x30,0x30,0x30,0x30
002a10  30303030          DCB      0x30,0x30,0x30,0x30
002a14  30303030          DCB      0x30,0x30,0x30,0x30
002a18  30303030          DCB      0x30,0x30,0x30,0x30
002a1c  30303030          DCB      0x30,0x30,0x30,0x30
002a20  30303030          DCB      0x30,0x30,0x30,0x30
002a24  30303030          DCB      0x30,0x30,0x30,0x30
002a28  30303030          DCB      0x30,0x30,0x30,0x30
002a2c  30303030          DCB      0x30,0x30,0x30,0x30
002a30  30303030          DCB      0x30,0x30,0x30,0x30
002a34  30303030          DCB      0x30,0x30,0x30,0x30
002a38  30303030          DCB      0x30,0x30,0x30,0x30
002a3c  30303100          DCB      0x30,0x30,0x31,0x00
                          %        84
002a94  31373233          DCB      0x31,0x37,0x32,0x33
002a98  32626138          DCB      0x32,0x62,0x61,0x38
002a9c  35336137          DCB      0x35,0x33,0x61,0x37
002aa0  65373331          DCB      0x65,0x37,0x33,0x31
002aa4  61663132          DCB      0x61,0x66,0x31,0x32
002aa8  39663232          DCB      0x39,0x66,0x32,0x32
002aac  66663431          DCB      0x66,0x66,0x34,0x31
002ab0  34393536          DCB      0x34,0x39,0x35,0x36
002ab4  33613431          DCB      0x33,0x61,0x34,0x31
002ab8  39633236          DCB      0x39,0x63,0x32,0x36
002abc  62663530          DCB      0x62,0x66,0x35,0x30
002ac0  61346339          DCB      0x61,0x34,0x63,0x39
002ac4  64366565          DCB      0x64,0x36,0x65,0x65
002ac8  66616436          DCB      0x66,0x61,0x64,0x36
002acc  31323600          DCB      0x31,0x32,0x36,0x00
                          %        84
002b24  31646235          DCB      0x31,0x64,0x62,0x35
002b28  33376465          DCB      0x33,0x37,0x64,0x65
002b2c  63653831          DCB      0x63,0x65,0x38,0x31
002b30  39623766          DCB      0x39,0x62,0x37,0x66
002b34  37306635          DCB      0x37,0x30,0x66,0x35
002b38  35356136          DCB      0x35,0x35,0x61,0x36
002b3c  37633432          DCB      0x37,0x63,0x34,0x32
002b40  37613863          DCB      0x37,0x61,0x38,0x63
002b44  64396266          DCB      0x64,0x39,0x62,0x66
002b48  31386165          DCB      0x31,0x38,0x61,0x65
002b4c  62396235          DCB      0x62,0x39,0x62,0x35
002b50  36653063          DCB      0x36,0x65,0x30,0x63
002b54  31313035          DCB      0x31,0x31,0x30,0x35
002b58  36666165          DCB      0x36,0x66,0x61,0x65
002b5c  36613300          DCB      0x36,0x61,0x33,0x00
                          %        84
                          DCD      0x00000044
002bb8  46464646          DCB      0x46,0x46,0x46,0x46
002bbc  46464646          DCB      0x46,0x46,0x46,0x46
002bc0  46464646          DCB      0x46,0x46,0x46,0x46
002bc4  46464646          DCB      0x46,0x46,0x46,0x46
002bc8  46464646          DCB      0x46,0x46,0x46,0x46
002bcc  46464646          DCB      0x46,0x46,0x46,0x46
002bd0  46464646          DCB      0x46,0x46,0x46,0x46
002bd4  46464646          DCB      0x46,0x46,0x46,0x46
002bd8  30303030          DCB      0x30,0x30,0x30,0x30
002bdc  30303030          DCB      0x30,0x30,0x30,0x30
002be0  30303030          DCB      0x30,0x30,0x30,0x30
002be4  30303030          DCB      0x30,0x30,0x30,0x30
002be8  30303030          DCB      0x30,0x30,0x30,0x30
002bec  30303031          DCB      0x30,0x30,0x30,0x31
002bf0  00000000          DCB      0x00,0x00,0x00,0x00
                          %        116
                          DCD      0x00000046
002c6c  38303030          DCB      0x38,0x30,0x30,0x30
002c70  30303030          DCB      0x30,0x30,0x30,0x30
002c74  30303030          DCB      0x30,0x30,0x30,0x30
002c78  30303030          DCB      0x30,0x30,0x30,0x30
002c7c  30303030          DCB      0x30,0x30,0x30,0x30
002c80  30303030          DCB      0x30,0x30,0x30,0x30
002c84  30303030          DCB      0x30,0x30,0x30,0x30
002c88  30363944          DCB      0x30,0x36,0x39,0x44
002c8c  35424239          DCB      0x35,0x42,0x42,0x39
002c90  31354243          DCB      0x31,0x35,0x42,0x43
002c94  44343645          DCB      0x44,0x34,0x36,0x45
002c98  46423141          DCB      0x46,0x42,0x31,0x41
002c9c  44354631          DCB      0x44,0x35,0x46,0x31
002ca0  37334142          DCB      0x37,0x33,0x41,0x42
002ca4  44460000          DCB      0x44,0x46,0x00,0x00
                          %        116
                          DCD      0x000000e9
                          DCD      0x0000004a
                          DCD      0x0000004a
                          DCD      0x0000004a
                          DCD      0x00000001
002d30  07000000          DCB      0x07,0x00,0x00,0x00
                          DCD      0x00000047
002d38  30303030          DCB      0x30,0x30,0x30,0x30
002d3c  30303030          DCB      0x30,0x30,0x30,0x30
002d40  30303030          DCB      0x30,0x30,0x30,0x30
002d44  30303030          DCB      0x30,0x30,0x30,0x30
002d48  30303030          DCB      0x30,0x30,0x30,0x30
002d4c  30303030          DCB      0x30,0x30,0x30,0x30
002d50  30303030          DCB      0x30,0x30,0x30,0x30
002d54  30303030          DCB      0x30,0x30,0x30,0x30
002d58  30303030          DCB      0x30,0x30,0x30,0x30
002d5c  30303030          DCB      0x30,0x30,0x30,0x30
002d60  30303030          DCB      0x30,0x30,0x30,0x30
002d64  30303030          DCB      0x30,0x30,0x30,0x30
002d68  30303030          DCB      0x30,0x30,0x30,0x30
002d6c  30303030          DCB      0x30,0x30,0x30,0x30
002d70  30303030          DCB      0x30,0x30,0x30,0x30
002d74  30303030          DCB      0x30,0x30,0x30,0x30
002d78  30303030          DCB      0x30,0x30,0x30,0x30
002d7c  30303000          DCB      0x30,0x30,0x30,0x00
                          %        72
002dc8  30303030          DCB      0x30,0x30,0x30,0x30
002dcc  30303030          DCB      0x30,0x30,0x30,0x30
002dd0  30303030          DCB      0x30,0x30,0x30,0x30
002dd4  30303030          DCB      0x30,0x30,0x30,0x30
002dd8  30303030          DCB      0x30,0x30,0x30,0x30
002ddc  30303030          DCB      0x30,0x30,0x30,0x30
002de0  30303030          DCB      0x30,0x30,0x30,0x30
002de4  30303030          DCB      0x30,0x30,0x30,0x30
002de8  30303030          DCB      0x30,0x30,0x30,0x30
002dec  30303030          DCB      0x30,0x30,0x30,0x30
002df0  30303030          DCB      0x30,0x30,0x30,0x30
002df4  30303030          DCB      0x30,0x30,0x30,0x30
002df8  30303030          DCB      0x30,0x30,0x30,0x30
002dfc  30303030          DCB      0x30,0x30,0x30,0x30
002e00  30303030          DCB      0x30,0x30,0x30,0x30
002e04  30303030          DCB      0x30,0x30,0x30,0x30
002e08  30303030          DCB      0x30,0x30,0x30,0x30
002e0c  30303100          DCB      0x30,0x30,0x31,0x00
                          %        72
002e58  35303332          DCB      0x35,0x30,0x33,0x32
002e5c  31336637          DCB      0x31,0x33,0x66,0x37
002e60  38636134          DCB      0x38,0x63,0x61,0x34
002e64  34383833          DCB      0x34,0x38,0x38,0x33
002e68  66316133          DCB      0x66,0x31,0x61,0x33
002e6c  62383136          DCB      0x62,0x38,0x31,0x36
002e70  32663138          DCB      0x32,0x66,0x31,0x38
002e74  38653535          DCB      0x38,0x65,0x35,0x35
002e78  33636432          DCB      0x33,0x63,0x64,0x32
002e7c  36356632          DCB      0x36,0x35,0x66,0x32
002e80  33633135          DCB      0x33,0x63,0x31,0x35
002e84  36376131          DCB      0x36,0x37,0x61,0x31
002e88  36383736          DCB      0x36,0x38,0x37,0x36
002e8c  39313362          DCB      0x39,0x31,0x33,0x62
002e90  30633261          DCB      0x30,0x63,0x32,0x61
002e94  63323435          DCB      0x63,0x32,0x34,0x35
002e98  38343932          DCB      0x38,0x34,0x39,0x32
002e9c  38333600          DCB      0x38,0x33,0x36,0x00
                          %        72
002ee8  31636364          DCB      0x31,0x63,0x63,0x64
002eec  61333830          DCB      0x61,0x33,0x38,0x30
002ef0  66316339          DCB      0x66,0x31,0x63,0x39
002ef4  65333138          DCB      0x65,0x33,0x31,0x38
002ef8  64393066          DCB      0x64,0x39,0x30,0x66
002efc  39356430          DCB      0x39,0x35,0x64,0x30
002f00  37653534          DCB      0x37,0x65,0x35,0x34
002f04  32366665          DCB      0x32,0x36,0x66,0x65
002f08  38376534          DCB      0x38,0x37,0x65,0x34
002f0c  35633065          DCB      0x35,0x63,0x30,0x65
002f10  38313834          DCB      0x38,0x31,0x38,0x34
002f14  36393865          DCB      0x36,0x39,0x38,0x65
002f18  34353936          DCB      0x34,0x35,0x39,0x36
002f1c  32333634          DCB      0x32,0x33,0x36,0x34
002f20  65333431          DCB      0x65,0x33,0x34,0x31
002f24  31363137          DCB      0x31,0x36,0x31,0x37
002f28  37646432          DCB      0x37,0x64,0x64,0x32
002f2c  32353900          DCB      0x32,0x35,0x39,0x00
                          %        72
                          DCD      0x00000044
002f7c  46464646          DCB      0x46,0x46,0x46,0x46
002f80  46464646          DCB      0x46,0x46,0x46,0x46
002f84  46464646          DCB      0x46,0x46,0x46,0x46
002f88  46464646          DCB      0x46,0x46,0x46,0x46
002f8c  46464646          DCB      0x46,0x46,0x46,0x46
002f90  46464646          DCB      0x46,0x46,0x46,0x46
002f94  46464646          DCB      0x46,0x46,0x46,0x46
002f98  46464646          DCB      0x46,0x46,0x46,0x46
002f9c  30303030          DCB      0x30,0x30,0x30,0x30
002fa0  30303030          DCB      0x30,0x30,0x30,0x30
002fa4  30303030          DCB      0x30,0x30,0x30,0x30
002fa8  30303030          DCB      0x30,0x30,0x30,0x30
002fac  30303030          DCB      0x30,0x30,0x30,0x30
002fb0  30303031          DCB      0x30,0x30,0x30,0x31
002fb4  00000000          DCB      0x00,0x00,0x00,0x00
                          %        116
                          DCD      0x00000055
003030  31464646          DCB      0x31,0x46,0x46,0x46
003034  46464646          DCB      0x46,0x46,0x46,0x46
003038  46464646          DCB      0x46,0x46,0x46,0x46
00303c  46464646          DCB      0x46,0x46,0x46,0x46
003040  46464646          DCB      0x46,0x46,0x46,0x46
003044  46464646          DCB      0x46,0x46,0x46,0x46
003048  46464646          DCB      0x46,0x46,0x46,0x46
00304c  46464646          DCB      0x46,0x46,0x46,0x46
003050  46464645          DCB      0x46,0x46,0x46,0x45
003054  39414532          DCB      0x39,0x41,0x45,0x32
003058  45443037          DCB      0x45,0x44,0x30,0x37
00305c  35373732          DCB      0x35,0x37,0x37,0x32
003060  36354446          DCB      0x36,0x35,0x44,0x46
003064  46374639          DCB      0x46,0x37,0x46,0x39
003068  34343531          DCB      0x34,0x34,0x35,0x31
00306c  45303631          DCB      0x45,0x30,0x36,0x31
003070  45313633          DCB      0x45,0x31,0x36,0x33
003074  43363100          DCB      0x43,0x36,0x31,0x00
                          %        104
                          DCD      0x0000011b
                          DCD      0x0000000c
                          DCD      0x00000007
                          DCD      0x00000005
                          DCD      0x00000001
0030f4  08000000          DCB      0x08,0x00,0x00,0x00
                          DCD      0x00000067
0030fc  30303030          DCB      0x30,0x30,0x30,0x30
003100  30303030          DCB      0x30,0x30,0x30,0x30
003104  30303030          DCB      0x30,0x30,0x30,0x30
003108  30303030          DCB      0x30,0x30,0x30,0x30
00310c  30303030          DCB      0x30,0x30,0x30,0x30
003110  30303030          DCB      0x30,0x30,0x30,0x30
003114  30303030          DCB      0x30,0x30,0x30,0x30
003118  30303030          DCB      0x30,0x30,0x30,0x30
00311c  30303030          DCB      0x30,0x30,0x30,0x30
003120  30303030          DCB      0x30,0x30,0x30,0x30
003124  30303030          DCB      0x30,0x30,0x30,0x30
003128  30303030          DCB      0x30,0x30,0x30,0x30
00312c  30303030          DCB      0x30,0x30,0x30,0x30
003130  30303030          DCB      0x30,0x30,0x30,0x30
003134  30303030          DCB      0x30,0x30,0x30,0x30
003138  30303030          DCB      0x30,0x30,0x30,0x30
00313c  30303030          DCB      0x30,0x30,0x30,0x30
003140  30303030          DCB      0x30,0x30,0x30,0x30
003144  30303030          DCB      0x30,0x30,0x30,0x30
003148  30303030          DCB      0x30,0x30,0x30,0x30
00314c  30303030          DCB      0x30,0x30,0x30,0x30
003150  30303030          DCB      0x30,0x30,0x30,0x30
003154  30303030          DCB      0x30,0x30,0x30,0x30
003158  30303030          DCB      0x30,0x30,0x30,0x30
00315c  30303030          DCB      0x30,0x30,0x30,0x30
003160  30303000          DCB      0x30,0x30,0x30,0x00
                          %        40
00318c  30303030          DCB      0x30,0x30,0x30,0x30
003190  30303030          DCB      0x30,0x30,0x30,0x30
003194  30303030          DCB      0x30,0x30,0x30,0x30
003198  30303030          DCB      0x30,0x30,0x30,0x30
00319c  30303030          DCB      0x30,0x30,0x30,0x30
0031a0  30303030          DCB      0x30,0x30,0x30,0x30
0031a4  30303030          DCB      0x30,0x30,0x30,0x30
0031a8  30303030          DCB      0x30,0x30,0x30,0x30
0031ac  30303030          DCB      0x30,0x30,0x30,0x30
0031b0  30303030          DCB      0x30,0x30,0x30,0x30
0031b4  30303030          DCB      0x30,0x30,0x30,0x30
0031b8  30303030          DCB      0x30,0x30,0x30,0x30
0031bc  30303030          DCB      0x30,0x30,0x30,0x30
0031c0  30303030          DCB      0x30,0x30,0x30,0x30
0031c4  30303030          DCB      0x30,0x30,0x30,0x30
0031c8  30303030          DCB      0x30,0x30,0x30,0x30
0031cc  30303030          DCB      0x30,0x30,0x30,0x30
0031d0  30303030          DCB      0x30,0x30,0x30,0x30
0031d4  30303030          DCB      0x30,0x30,0x30,0x30
0031d8  30303030          DCB      0x30,0x30,0x30,0x30
0031dc  30303030          DCB      0x30,0x30,0x30,0x30
0031e0  30303030          DCB      0x30,0x30,0x30,0x30
0031e4  30303030          DCB      0x30,0x30,0x30,0x30
0031e8  30303030          DCB      0x30,0x30,0x30,0x30
0031ec  30303030          DCB      0x30,0x30,0x30,0x30
0031f0  30303100          DCB      0x30,0x30,0x31,0x00
                          %        40
00321c  30363066          DCB      0x30,0x36,0x30,0x66
003220  30356636          DCB      0x30,0x35,0x66,0x36
003224  35386634          DCB      0x35,0x38,0x66,0x34
003228  39633161          DCB      0x39,0x63,0x31,0x61
00322c  64336162          DCB      0x64,0x33,0x61,0x62
003230  31383930          DCB      0x31,0x38,0x39,0x30
003234  66373138          DCB      0x66,0x37,0x31,0x38
003238  34323130          DCB      0x34,0x32,0x31,0x30
00323c  65666430          DCB      0x65,0x66,0x64,0x30
003240  39383765          DCB      0x39,0x38,0x37,0x65
003244  33303763          DCB      0x33,0x30,0x37,0x63
003248  38346332          DCB      0x38,0x34,0x63,0x32
00324c  37616363          DCB      0x37,0x61,0x63,0x63
003250  66623866          DCB      0x66,0x62,0x38,0x66
003254  39663637          DCB      0x39,0x66,0x36,0x37
003258  63633263          DCB      0x63,0x63,0x32,0x63
00325c  34363031          DCB      0x34,0x36,0x30,0x31
003260  38396562          DCB      0x38,0x39,0x65,0x62
003264  35616161          DCB      0x35,0x61,0x61,0x61
003268  61363265          DCB      0x61,0x36,0x32,0x65
00326c  65323232          DCB      0x65,0x32,0x32,0x32
003270  65623162          DCB      0x65,0x62,0x31,0x62
003274  33353534          DCB      0x33,0x35,0x35,0x34
003278  30636665          DCB      0x30,0x63,0x66,0x65
00327c  39303233          DCB      0x39,0x30,0x32,0x33
003280  37343600          DCB      0x37,0x34,0x36,0x00
                          %        40
0032ac  31653336          DCB      0x31,0x65,0x33,0x36
0032b0  39303530          DCB      0x39,0x30,0x35,0x30
0032b4  62376334          DCB      0x62,0x37,0x63,0x34
0032b8  65343261          DCB      0x65,0x34,0x32,0x61
0032bc  63626131          DCB      0x63,0x62,0x61,0x31
0032c0  64616362          DCB      0x64,0x61,0x63,0x62
0032c4  66303432          DCB      0x66,0x30,0x34,0x32
0032c8  39396333          DCB      0x39,0x39,0x63,0x33
0032cc  34363037          DCB      0x34,0x36,0x30,0x37
0032d0  38326639          DCB      0x38,0x32,0x66,0x39
0032d4  31386561          DCB      0x31,0x38,0x65,0x61
0032d8  34323765          DCB      0x34,0x32,0x37,0x65
0032dc  36333235          DCB      0x36,0x33,0x32,0x35
0032e0  31363565          DCB      0x31,0x36,0x35,0x65
0032e4  39656131          DCB      0x39,0x65,0x61,0x31
0032e8  30653364          DCB      0x30,0x65,0x33,0x64
0032ec  61356636          DCB      0x61,0x35,0x66,0x36
0032f0  63343265          DCB      0x63,0x34,0x32,0x65
0032f4  39633535          DCB      0x39,0x63,0x35,0x35
0032f8  32313561          DCB      0x32,0x31,0x35,0x61
0032fc  61396361          DCB      0x61,0x39,0x63,0x61
003300  32376135          DCB      0x32,0x37,0x61,0x35
003304  38363365          DCB      0x38,0x36,0x33,0x65
003308  63343864          DCB      0x63,0x34,0x38,0x64
00330c  38653032          DCB      0x38,0x65,0x30,0x32
003310  38366200          DCB      0x38,0x36,0x62,0x00
                          %        40
                          DCD      0x00000044
003340  46464646          DCB      0x46,0x46,0x46,0x46
003344  46464646          DCB      0x46,0x46,0x46,0x46
003348  46464646          DCB      0x46,0x46,0x46,0x46
00334c  46464646          DCB      0x46,0x46,0x46,0x46
003350  46464646          DCB      0x46,0x46,0x46,0x46
003354  46464646          DCB      0x46,0x46,0x46,0x46
003358  46464646          DCB      0x46,0x46,0x46,0x46
00335c  46464646          DCB      0x46,0x46,0x46,0x46
003360  30303030          DCB      0x30,0x30,0x30,0x30
003364  30303030          DCB      0x30,0x30,0x30,0x30
003368  30303030          DCB      0x30,0x30,0x30,0x30
00336c  30303030          DCB      0x30,0x30,0x30,0x30
003370  30303030          DCB      0x30,0x30,0x30,0x30
003374  30303031          DCB      0x30,0x30,0x30,0x31
003378  00000000          DCB      0x00,0x00,0x00,0x00
                          %        116
                          DCD      0x0000007b
0033f4  37464646          DCB      0x37,0x46,0x46,0x46
0033f8  46464646          DCB      0x46,0x46,0x46,0x46
0033fc  46464646          DCB      0x46,0x46,0x46,0x46
003400  46464646          DCB      0x46,0x46,0x46,0x46
003404  46464646          DCB      0x46,0x46,0x46,0x46
003408  46464646          DCB      0x46,0x46,0x46,0x46
00340c  46464646          DCB      0x46,0x46,0x46,0x46
003410  46464646          DCB      0x46,0x46,0x46,0x46
003414  46464646          DCB      0x46,0x46,0x46,0x46
003418  46464646          DCB      0x46,0x46,0x46,0x46
00341c  46464646          DCB      0x46,0x46,0x46,0x46
003420  46464646          DCB      0x46,0x46,0x46,0x46
003424  46464645          DCB      0x46,0x46,0x46,0x45
003428  35463833          DCB      0x35,0x46,0x38,0x33
00342c  42324434          DCB      0x42,0x32,0x44,0x34
003430  45413230          DCB      0x45,0x41,0x32,0x30
003434  34303045          DCB      0x34,0x30,0x30,0x45
003438  43343535          DCB      0x43,0x34,0x35,0x35
00343c  37443545          DCB      0x37,0x44,0x35,0x45
003440  44334533          DCB      0x44,0x33,0x45,0x33
003444  45374341          DCB      0x45,0x37,0x43,0x41
003448  35423442          DCB      0x35,0x42,0x34,0x42
00344c  35433833          DCB      0x35,0x43,0x38,0x33
003450  42384530          DCB      0x42,0x38,0x45,0x30
003454  31453546          DCB      0x31,0x45,0x35,0x46
003458  43460000          DCB      0x43,0x46,0x00,0x00
                          %        72
                          DCD      0x00000199
                          DCD      0x00000057
                          DCD      0x00000057
                          DCD      0x00000057
                          DCD      0x00000001
0034b8  09000000          DCB      0x09,0x00,0x00,0x00
                          DCD      0x0000008f
0034c0  30303030          DCB      0x30,0x30,0x30,0x30
0034c4  30303030          DCB      0x30,0x30,0x30,0x30
0034c8  30303030          DCB      0x30,0x30,0x30,0x30
0034cc  30303030          DCB      0x30,0x30,0x30,0x30
0034d0  30303030          DCB      0x30,0x30,0x30,0x30
0034d4  30303030          DCB      0x30,0x30,0x30,0x30
0034d8  30303030          DCB      0x30,0x30,0x30,0x30
0034dc  30303030          DCB      0x30,0x30,0x30,0x30
0034e0  30303030          DCB      0x30,0x30,0x30,0x30
0034e4  30303030          DCB      0x30,0x30,0x30,0x30
0034e8  30303030          DCB      0x30,0x30,0x30,0x30
0034ec  30303030          DCB      0x30,0x30,0x30,0x30
0034f0  30303030          DCB      0x30,0x30,0x30,0x30
0034f4  30303030          DCB      0x30,0x30,0x30,0x30
0034f8  30303030          DCB      0x30,0x30,0x30,0x30
0034fc  30303030          DCB      0x30,0x30,0x30,0x30
003500  30303030          DCB      0x30,0x30,0x30,0x30
003504  30303030          DCB      0x30,0x30,0x30,0x30
003508  30303030          DCB      0x30,0x30,0x30,0x30
00350c  30303030          DCB      0x30,0x30,0x30,0x30
003510  30303030          DCB      0x30,0x30,0x30,0x30
003514  30303030          DCB      0x30,0x30,0x30,0x30
003518  30303030          DCB      0x30,0x30,0x30,0x30
00351c  30303030          DCB      0x30,0x30,0x30,0x30
003520  30303030          DCB      0x30,0x30,0x30,0x30
003524  30303030          DCB      0x30,0x30,0x30,0x30
003528  30303030          DCB      0x30,0x30,0x30,0x30
00352c  30303030          DCB      0x30,0x30,0x30,0x30
003530  30303030          DCB      0x30,0x30,0x30,0x30
003534  30303030          DCB      0x30,0x30,0x30,0x30
003538  30303030          DCB      0x30,0x30,0x30,0x30
00353c  30303030          DCB      0x30,0x30,0x30,0x30
003540  30303030          DCB      0x30,0x30,0x30,0x30
003544  30303030          DCB      0x30,0x30,0x30,0x30
003548  30303030          DCB      0x30,0x30,0x30,0x30
00354c  30303000          DCB      0x30,0x30,0x30,0x00
003550  30303030          DCB      0x30,0x30,0x30,0x30
003554  30303030          DCB      0x30,0x30,0x30,0x30
003558  30303030          DCB      0x30,0x30,0x30,0x30
00355c  30303030          DCB      0x30,0x30,0x30,0x30
003560  30303030          DCB      0x30,0x30,0x30,0x30
003564  30303030          DCB      0x30,0x30,0x30,0x30
003568  30303030          DCB      0x30,0x30,0x30,0x30
00356c  30303030          DCB      0x30,0x30,0x30,0x30
003570  30303030          DCB      0x30,0x30,0x30,0x30
003574  30303030          DCB      0x30,0x30,0x30,0x30
003578  30303030          DCB      0x30,0x30,0x30,0x30
00357c  30303030          DCB      0x30,0x30,0x30,0x30
003580  30303030          DCB      0x30,0x30,0x30,0x30
003584  30303030          DCB      0x30,0x30,0x30,0x30
003588  30303030          DCB      0x30,0x30,0x30,0x30
00358c  30303030          DCB      0x30,0x30,0x30,0x30
003590  30303030          DCB      0x30,0x30,0x30,0x30
003594  30303030          DCB      0x30,0x30,0x30,0x30
003598  30303030          DCB      0x30,0x30,0x30,0x30
00359c  30303030          DCB      0x30,0x30,0x30,0x30
0035a0  30303030          DCB      0x30,0x30,0x30,0x30
0035a4  30303030          DCB      0x30,0x30,0x30,0x30
0035a8  30303030          DCB      0x30,0x30,0x30,0x30
0035ac  30303030          DCB      0x30,0x30,0x30,0x30
0035b0  30303030          DCB      0x30,0x30,0x30,0x30
0035b4  30303030          DCB      0x30,0x30,0x30,0x30
0035b8  30303030          DCB      0x30,0x30,0x30,0x30
0035bc  30303030          DCB      0x30,0x30,0x30,0x30
0035c0  30303030          DCB      0x30,0x30,0x30,0x30
0035c4  30303030          DCB      0x30,0x30,0x30,0x30
0035c8  30303030          DCB      0x30,0x30,0x30,0x30
0035cc  30303030          DCB      0x30,0x30,0x30,0x30
0035d0  30303030          DCB      0x30,0x30,0x30,0x30
0035d4  30303030          DCB      0x30,0x30,0x30,0x30
0035d8  30303030          DCB      0x30,0x30,0x30,0x30
0035dc  30303100          DCB      0x30,0x30,0x31,0x00
0035e0  32366562          DCB      0x32,0x36,0x65,0x62
0035e4  37613835          DCB      0x37,0x61,0x38,0x35
0035e8  39393233          DCB      0x39,0x39,0x32,0x33
0035ec  66626338          DCB      0x66,0x62,0x63,0x38
0035f0  32313839          DCB      0x32,0x31,0x38,0x39
0035f4  36333166          DCB      0x36,0x33,0x31,0x66
0035f8  38313033          DCB      0x38,0x31,0x30,0x33
0035fc  66653461          DCB      0x66,0x65,0x34,0x61
003600  63396361          DCB      0x63,0x39,0x63,0x61
003604  32393730          DCB      0x32,0x39,0x37,0x30
003608  30313264          DCB      0x30,0x31,0x32,0x64
00360c  35643436          DCB      0x35,0x64,0x34,0x36
003610  30323438          DCB      0x30,0x32,0x34,0x38
003614  30343830          DCB      0x30,0x34,0x38,0x30
003618  31383431          DCB      0x31,0x38,0x34,0x31
00361c  63613434          DCB      0x63,0x61,0x34,0x34
003620  33373039          DCB      0x33,0x37,0x30,0x39
003624  35383439          DCB      0x35,0x38,0x34,0x39
003628  33623230          DCB      0x33,0x62,0x32,0x30
00362c  35653634          DCB      0x35,0x65,0x36,0x34
003630  37646133          DCB      0x37,0x64,0x61,0x33
003634  30346462          DCB      0x30,0x34,0x64,0x62
003638  34636562          DCB      0x34,0x63,0x65,0x62
00363c  30386362          DCB      0x30,0x38,0x63,0x62
003640  62643162          DCB      0x62,0x64,0x31,0x62
003644  61333934          DCB      0x61,0x33,0x39,0x34
003648  39343737          DCB      0x39,0x34,0x37,0x37
00364c  36666239          DCB      0x36,0x66,0x62,0x39
003650  38386234          DCB      0x38,0x38,0x62,0x34
003654  37313734          DCB      0x37,0x31,0x37,0x34
003658  64636138          DCB      0x64,0x63,0x61,0x38
00365c  38633765          DCB      0x38,0x63,0x37,0x65
003660  32393435          DCB      0x32,0x39,0x34,0x35
003664  32383361          DCB      0x32,0x38,0x33,0x61
003668  30316338          DCB      0x30,0x31,0x63,0x38
00366c  39373200          DCB      0x39,0x37,0x32,0x00
003670  33343964          DCB      0x33,0x34,0x39,0x64
003674  63383037          DCB      0x63,0x38,0x30,0x37
003678  66346662          DCB      0x66,0x34,0x66,0x62
00367c  66333734          DCB      0x66,0x33,0x37,0x34
003680  66346165          DCB      0x66,0x34,0x61,0x65
003684  61646533          DCB      0x61,0x64,0x65,0x33
003688  62636139          DCB      0x62,0x63,0x61,0x39
00368c  35333134          DCB      0x35,0x33,0x31,0x34
003690  64643538          DCB      0x64,0x64,0x35,0x38
003694  63656339          DCB      0x63,0x65,0x63,0x39
003698  66333037          DCB      0x66,0x33,0x30,0x37
00369c  61353466          DCB      0x61,0x35,0x34,0x66
0036a0  66633631          DCB      0x66,0x63,0x36,0x31
0036a4  65666330          DCB      0x65,0x66,0x63,0x30
0036a8  30366438          DCB      0x30,0x36,0x64,0x38
0036ac  61326339          DCB      0x61,0x32,0x63,0x39
0036b0  64343937          DCB      0x64,0x34,0x39,0x37
0036b4  39633061          DCB      0x39,0x63,0x30,0x61
0036b8  63343461          DCB      0x63,0x34,0x34,0x61
0036bc  65613734          DCB      0x65,0x61,0x37,0x34
0036c0  66626562          DCB      0x66,0x62,0x65,0x62
0036c4  62623966          DCB      0x62,0x62,0x39,0x66
0036c8  37373261          DCB      0x37,0x37,0x32,0x61
0036cc  65646362          DCB      0x65,0x64,0x63,0x62
0036d0  36323062          DCB      0x36,0x32,0x30,0x62
0036d4  30316137          DCB      0x30,0x31,0x61,0x37
0036d8  62613761          DCB      0x62,0x61,0x37,0x61
0036dc  66316233          DCB      0x66,0x31,0x62,0x33
0036e0  32303433          DCB      0x32,0x30,0x34,0x33
0036e4  30633835          DCB      0x30,0x63,0x38,0x35
0036e8  39313938          DCB      0x39,0x31,0x39,0x38
0036ec  34663630          DCB      0x34,0x66,0x36,0x30
0036f0  31636434          DCB      0x31,0x63,0x64,0x34
0036f4  63313433          DCB      0x63,0x31,0x34,0x33
0036f8  65663163          DCB      0x65,0x66,0x31,0x63
0036fc  37613300          DCB      0x37,0x61,0x33,0x00
                          DCD      0x00000044
003704  46464646          DCB      0x46,0x46,0x46,0x46
003708  46464646          DCB      0x46,0x46,0x46,0x46
00370c  46464646          DCB      0x46,0x46,0x46,0x46
003710  46464646          DCB      0x46,0x46,0x46,0x46
003714  46464646          DCB      0x46,0x46,0x46,0x46
003718  46464646          DCB      0x46,0x46,0x46,0x46
00371c  46464646          DCB      0x46,0x46,0x46,0x46
003720  46464646          DCB      0x46,0x46,0x46,0x46
003724  30303030          DCB      0x30,0x30,0x30,0x30
003728  30303030          DCB      0x30,0x30,0x30,0x30
00372c  30303030          DCB      0x30,0x30,0x30,0x30
003730  30303030          DCB      0x30,0x30,0x30,0x30
003734  30303030          DCB      0x30,0x30,0x30,0x30
003738  30303031          DCB      0x30,0x30,0x30,0x31
00373c  00000000          DCB      0x00,0x00,0x00,0x00
                          %        116
                          DCD      0x000000ac
0037b8  32303030          DCB      0x32,0x30,0x30,0x30
0037bc  30303030          DCB      0x30,0x30,0x30,0x30
0037c0  30303030          DCB      0x30,0x30,0x30,0x30
0037c4  30303030          DCB      0x30,0x30,0x30,0x30
0037c8  30303030          DCB      0x30,0x30,0x30,0x30
0037cc  30303030          DCB      0x30,0x30,0x30,0x30
0037d0  30303030          DCB      0x30,0x30,0x30,0x30
0037d4  30303030          DCB      0x30,0x30,0x30,0x30
0037d8  30303030          DCB      0x30,0x30,0x30,0x30
0037dc  30303030          DCB      0x30,0x30,0x30,0x30
0037e0  30303030          DCB      0x30,0x30,0x30,0x30
0037e4  30303030          DCB      0x30,0x30,0x30,0x30
0037e8  30303030          DCB      0x30,0x30,0x30,0x30
0037ec  30303030          DCB      0x30,0x30,0x30,0x30
0037f0  30303030          DCB      0x30,0x30,0x30,0x30
0037f4  30303030          DCB      0x30,0x30,0x30,0x30
0037f8  30303030          DCB      0x30,0x30,0x30,0x30
0037fc  30303031          DCB      0x30,0x30,0x30,0x31
003800  33313835          DCB      0x33,0x31,0x38,0x35
003804  30453146          DCB      0x30,0x45,0x31,0x46
003808  31394136          DCB      0x31,0x39,0x41,0x36
00380c  33453442          DCB      0x33,0x45,0x34,0x42
003810  33393141          DCB      0x33,0x39,0x31,0x41
003814  38444239          DCB      0x38,0x44,0x42,0x39
003818  31374634          DCB      0x31,0x37,0x46,0x34
00381c  31333842          DCB      0x31,0x33,0x38,0x42
003820  36333044          DCB      0x36,0x33,0x30,0x44
003824  38344245          DCB      0x38,0x34,0x42,0x45
003828  35443633          DCB      0x35,0x44,0x36,0x33
00382c  39333831          DCB      0x39,0x33,0x38,0x31
003830  45393144          DCB      0x45,0x39,0x31,0x44
003834  45423435          DCB      0x45,0x42,0x34,0x35
003838  43464537          DCB      0x43,0x46,0x45,0x37
00383c  37384636          DCB      0x37,0x38,0x46,0x36
003840  33374331          DCB      0x33,0x37,0x43,0x31
003844  30303100          DCB      0x30,0x30,0x31,0x00
                          %        32
                          DCD      0x0000023b
                          DCD      0x0000000a
                          DCD      0x00000005
                          DCD      0x00000002
                          DCD      0x00000001
00387c  0f000000          DCB      0x0f,0x00,0x00,0x00
                          DCD      0x00000030
003884  30303030          DCB      0x30,0x30,0x30,0x30
003888  30303030          DCB      0x30,0x30,0x30,0x30
00388c  30303030          DCB      0x30,0x30,0x30,0x30
003890  30303030          DCB      0x30,0x30,0x30,0x30
003894  30303030          DCB      0x30,0x30,0x30,0x30
003898  30303030          DCB      0x30,0x30,0x30,0x30
00389c  30303030          DCB      0x30,0x30,0x30,0x30
0038a0  30303030          DCB      0x30,0x30,0x30,0x30
0038a4  30303030          DCB      0x30,0x30,0x30,0x30
0038a8  30303030          DCB      0x30,0x30,0x30,0x30
0038ac  30000000          DCB      0x30,0x00,0x00,0x00
                          %        100
003914  30303030          DCB      0x30,0x30,0x30,0x30
003918  30303030          DCB      0x30,0x30,0x30,0x30
00391c  30303030          DCB      0x30,0x30,0x30,0x30
003920  30303030          DCB      0x30,0x30,0x30,0x30
003924  30303030          DCB      0x30,0x30,0x30,0x30
003928  30303030          DCB      0x30,0x30,0x30,0x30
00392c  30303030          DCB      0x30,0x30,0x30,0x30
003930  30303030          DCB      0x30,0x30,0x30,0x30
003934  30303030          DCB      0x30,0x30,0x30,0x30
003938  30303030          DCB      0x30,0x30,0x30,0x30
00393c  33000000          DCB      0x33,0x00,0x00,0x00
                          %        100
0039a4  44423446          DCB      0x44,0x42,0x34,0x46
0039a8  46313045          DCB      0x46,0x31,0x30,0x45
0039ac  43303537          DCB      0x43,0x30,0x35,0x37
0039b0  45394145          DCB      0x45,0x39,0x41,0x45
0039b4  32364230          DCB      0x32,0x36,0x42,0x30
0039b8  37443032          DCB      0x37,0x44,0x30,0x32
0039bc  38304237          DCB      0x38,0x30,0x42,0x37
0039c0  46343334          DCB      0x46,0x34,0x33,0x34
0039c4  31444135          DCB      0x31,0x44,0x41,0x35
0039c8  44314231          DCB      0x44,0x31,0x42,0x31
0039cc  45414530          DCB      0x45,0x41,0x45,0x30
0039d0  36433744          DCB      0x36,0x43,0x37,0x44
0039d4  00000000          DCB      0x00,0x00,0x00,0x00
                          %        92
003a34  39423246          DCB      0x39,0x42,0x32,0x46
003a38  32463644          DCB      0x32,0x46,0x36,0x44
003a3c  39433536          DCB      0x39,0x43,0x35,0x36
003a40  32384137          DCB      0x32,0x38,0x41,0x37
003a44  38343431          DCB      0x38,0x34,0x34,0x31
003a48  36334430          DCB      0x36,0x33,0x44,0x30
003a4c  31354245          DCB      0x31,0x35,0x42,0x45
003a50  38363334          DCB      0x38,0x36,0x33,0x34
003a54  34303832          DCB      0x34,0x30,0x38,0x32
003a58  41413838          DCB      0x41,0x41,0x38,0x38
003a5c  44393545          DCB      0x44,0x39,0x35,0x45
003a60  32463944          DCB      0x32,0x46,0x39,0x44
003a64  00000000          DCB      0x00,0x00,0x00,0x00
                          %        92
                          DCD      0x0000003a
003ac8  46464646          DCB      0x46,0x46,0x46,0x46
003acc  46464646          DCB      0x46,0x46,0x46,0x46
003ad0  46464646          DCB      0x46,0x46,0x46,0x46
003ad4  46464646          DCB      0x46,0x46,0x46,0x46
003ad8  46464646          DCB      0x46,0x46,0x46,0x46
003adc  46464646          DCB      0x46,0x46,0x46,0x46
003ae0  46464646          DCB      0x46,0x46,0x46,0x46
003ae4  46464646          DCB      0x46,0x46,0x46,0x46
003ae8  46464646          DCB      0x46,0x46,0x46,0x46
003aec  46464645          DCB      0x46,0x46,0x46,0x45
003af0  46464646          DCB      0x46,0x46,0x46,0x46
003af4  45453337          DCB      0x45,0x45,0x33,0x37
003af8  00000000          DCB      0x00,0x00,0x00,0x00
                          %        124
                          DCD      0x0000003a
003b7c  46464646          DCB      0x46,0x46,0x46,0x46
003b80  46464646          DCB      0x46,0x46,0x46,0x46
003b84  46464646          DCB      0x46,0x46,0x46,0x46
003b88  46464646          DCB      0x46,0x46,0x46,0x46
003b8c  46464646          DCB      0x46,0x46,0x46,0x46
003b90  46464645          DCB      0x46,0x46,0x46,0x45
003b94  32364632          DCB      0x32,0x36,0x46,0x32
003b98  46433137          DCB      0x46,0x43,0x31,0x37
003b9c  30463639          DCB      0x30,0x46,0x36,0x39
003ba0  34363641          DCB      0x34,0x36,0x36,0x41
003ba4  37344445          DCB      0x37,0x34,0x44,0x45
003ba8  46443844          DCB      0x46,0x44,0x38,0x44
003bac  00000000          DCB      0x00,0x00,0x00,0x00
                          %        124
                          DCD      0x000000c0
                          DCD      0x00000007
                          DCD      0x00000002
                          DCD      0x00000001
                          DCD      0x00000000
003c40  10000000          DCB      0x10,0x00,0x00,0x00
                          DCD      0x00000038
003c48  30303030          DCB      0x30,0x30,0x30,0x30
003c4c  30303030          DCB      0x30,0x30,0x30,0x30
003c50  30303030          DCB      0x30,0x30,0x30,0x30
003c54  30303030          DCB      0x30,0x30,0x30,0x30
003c58  30303030          DCB      0x30,0x30,0x30,0x30
003c5c  30303030          DCB      0x30,0x30,0x30,0x30
003c60  30303030          DCB      0x30,0x30,0x30,0x30
003c64  30303030          DCB      0x30,0x30,0x30,0x30
003c68  30303030          DCB      0x30,0x30,0x30,0x30
003c6c  30303030          DCB      0x30,0x30,0x30,0x30
003c70  30303030          DCB      0x30,0x30,0x30,0x30
003c74  30303030          DCB      0x30,0x30,0x30,0x30
003c78  30303030          DCB      0x30,0x30,0x30,0x30
003c7c  30303030          DCB      0x30,0x30,0x30,0x30
003c80  00000000          DCB      0x00,0x00,0x00,0x00
                          %        84
003cd8  30303030          DCB      0x30,0x30,0x30,0x30
003cdc  30303030          DCB      0x30,0x30,0x30,0x30
003ce0  30303030          DCB      0x30,0x30,0x30,0x30
003ce4  30303030          DCB      0x30,0x30,0x30,0x30
003ce8  30303030          DCB      0x30,0x30,0x30,0x30
003cec  30303030          DCB      0x30,0x30,0x30,0x30
003cf0  30303030          DCB      0x30,0x30,0x30,0x30
003cf4  30303030          DCB      0x30,0x30,0x30,0x30
003cf8  30303030          DCB      0x30,0x30,0x30,0x30
003cfc  30303030          DCB      0x30,0x30,0x30,0x30
003d00  30303030          DCB      0x30,0x30,0x30,0x30
003d04  30303030          DCB      0x30,0x30,0x30,0x30
003d08  30303030          DCB      0x30,0x30,0x30,0x30
003d0c  30303035          DCB      0x30,0x30,0x30,0x35
003d10  00000000          DCB      0x00,0x00,0x00,0x00
                          %        84
003d68  41313435          DCB      0x41,0x31,0x34,0x35
003d6c  35423333          DCB      0x35,0x42,0x33,0x33
003d70  34444630          DCB      0x34,0x44,0x46,0x30
003d74  39394446          DCB      0x39,0x39,0x44,0x46
003d78  33304643          DCB      0x33,0x30,0x46,0x43
003d7c  32384131          DCB      0x32,0x38,0x41,0x31
003d80  36394134          DCB      0x36,0x39,0x41,0x34
003d84  36374539          DCB      0x36,0x37,0x45,0x39
003d88  45343730          DCB      0x45,0x34,0x37,0x30
003d8c  37354139          DCB      0x37,0x35,0x41,0x39
003d90  30463745          DCB      0x30,0x46,0x37,0x45
003d94  36353045          DCB      0x36,0x35,0x30,0x45
003d98  42364237          DCB      0x42,0x36,0x42,0x37
003d9c  41343543          DCB      0x41,0x34,0x35,0x43
003da0  00000000          DCB      0x00,0x00,0x00,0x00
                          %        84
003df8  37453038          DCB      0x37,0x45,0x30,0x38
003dfc  39464544          DCB      0x39,0x46,0x45,0x44
003e00  37464241          DCB      0x37,0x46,0x42,0x41
003e04  33343432          DCB      0x33,0x34,0x34,0x32
003e08  38324341          DCB      0x38,0x32,0x43,0x41
003e0c  46424436          DCB      0x46,0x42,0x44,0x36
003e10  46374533          DCB      0x46,0x37,0x45,0x33
003e14  31394637          DCB      0x31,0x39,0x46,0x37
003e18  43304230          DCB      0x43,0x30,0x42,0x30
003e1c  42443539          DCB      0x42,0x44,0x35,0x39
003e20  45324341          DCB      0x45,0x32,0x43,0x41
003e24  34424442          DCB      0x34,0x42,0x44,0x42
003e28  35353644          DCB      0x35,0x35,0x36,0x44
003e2c  36314135          DCB      0x36,0x31,0x41,0x35
003e30  00000000          DCB      0x00,0x00,0x00,0x00
                          %        84
                          DCD      0x00000046
003e8c  46464646          DCB      0x46,0x46,0x46,0x46
003e90  46464646          DCB      0x46,0x46,0x46,0x46
003e94  46464646          DCB      0x46,0x46,0x46,0x46
003e98  46464646          DCB      0x46,0x46,0x46,0x46
003e9c  46464646          DCB      0x46,0x46,0x46,0x46
003ea0  46464646          DCB      0x46,0x46,0x46,0x46
003ea4  46464646          DCB      0x46,0x46,0x46,0x46
003ea8  46464646          DCB      0x46,0x46,0x46,0x46
003eac  46464646          DCB      0x46,0x46,0x46,0x46
003eb0  46464646          DCB      0x46,0x46,0x46,0x46
003eb4  46464646          DCB      0x46,0x46,0x46,0x46
003eb8  46464645          DCB      0x46,0x46,0x46,0x45
003ebc  46464646          DCB      0x46,0x46,0x46,0x46
003ec0  45353644          DCB      0x45,0x35,0x36,0x44
003ec4  00000000          DCB      0x00,0x00,0x00,0x00
                          %        116
                          DCD      0x00000046
003f40  30303030          DCB      0x30,0x30,0x30,0x30
003f44  30303030          DCB      0x30,0x30,0x30,0x30
003f48  30303030          DCB      0x30,0x30,0x30,0x30
003f4c  30303030          DCB      0x30,0x30,0x30,0x30
003f50  30303030          DCB      0x30,0x30,0x30,0x30
003f54  30303030          DCB      0x30,0x30,0x30,0x30
003f58  30303031          DCB      0x30,0x30,0x30,0x31
003f5c  44434538          DCB      0x44,0x43,0x45,0x38
003f60  44324543          DCB      0x44,0x32,0x45,0x43
003f64  36313834          DCB      0x36,0x31,0x38,0x34
003f68  43414630          DCB      0x43,0x41,0x46,0x30
003f6c  41393731          DCB      0x41,0x39,0x37,0x31
003f70  37363946          DCB      0x37,0x36,0x39,0x46
003f74  42314637          DCB      0x42,0x31,0x46,0x37
003f78  00000000          DCB      0x00,0x00,0x00,0x00
                          %        116
                          DCD      0x000000e0
                          DCD      0x00000007
                          DCD      0x00000002
                          DCD      0x00000001
                          DCD      0x00000000
004004  11000000          DCB      0x11,0x00,0x00,0x00
                          DCD      0x00000040
00400c  30303030          DCB      0x30,0x30,0x30,0x30
004010  30303030          DCB      0x30,0x30,0x30,0x30
004014  30303030          DCB      0x30,0x30,0x30,0x30
004018  30303030          DCB      0x30,0x30,0x30,0x30
00401c  30303030          DCB      0x30,0x30,0x30,0x30
004020  30303030          DCB      0x30,0x30,0x30,0x30
004024  30303030          DCB      0x30,0x30,0x30,0x30
004028  30303030          DCB      0x30,0x30,0x30,0x30
00402c  30303030          DCB      0x30,0x30,0x30,0x30
004030  30303030          DCB      0x30,0x30,0x30,0x30
004034  30303030          DCB      0x30,0x30,0x30,0x30
004038  30303030          DCB      0x30,0x30,0x30,0x30
00403c  30303030          DCB      0x30,0x30,0x30,0x30
004040  30303030          DCB      0x30,0x30,0x30,0x30
004044  30303030          DCB      0x30,0x30,0x30,0x30
004048  30303030          DCB      0x30,0x30,0x30,0x30
00404c  00000000          DCB      0x00,0x00,0x00,0x00
                          %        76
00409c  30303030          DCB      0x30,0x30,0x30,0x30
0040a0  30303030          DCB      0x30,0x30,0x30,0x30
0040a4  30303030          DCB      0x30,0x30,0x30,0x30
0040a8  30303030          DCB      0x30,0x30,0x30,0x30
0040ac  30303030          DCB      0x30,0x30,0x30,0x30
0040b0  30303030          DCB      0x30,0x30,0x30,0x30
0040b4  30303030          DCB      0x30,0x30,0x30,0x30
0040b8  30303030          DCB      0x30,0x30,0x30,0x30
0040bc  30303030          DCB      0x30,0x30,0x30,0x30
0040c0  30303030          DCB      0x30,0x30,0x30,0x30
0040c4  30303030          DCB      0x30,0x30,0x30,0x30
0040c8  30303030          DCB      0x30,0x30,0x30,0x30
0040cc  30303030          DCB      0x30,0x30,0x30,0x30
0040d0  30303030          DCB      0x30,0x30,0x30,0x30
0040d4  30303030          DCB      0x30,0x30,0x30,0x30
0040d8  30303037          DCB      0x30,0x30,0x30,0x37
0040dc  00000000          DCB      0x00,0x00,0x00,0x00
                          %        76
00412c  37394245          DCB      0x37,0x39,0x42,0x45
004130  36363745          DCB      0x36,0x36,0x37,0x45
004134  46394443          DCB      0x46,0x39,0x44,0x43
004138  42424143          DCB      0x42,0x42,0x41,0x43
00413c  35354130          DCB      0x35,0x35,0x41,0x30
004140  36323935          DCB      0x36,0x32,0x39,0x35
004144  43453837          DCB      0x43,0x45,0x38,0x37
004148  30423037          DCB      0x30,0x42,0x30,0x37
00414c  30323942          DCB      0x30,0x32,0x39,0x42
004150  46434442          DCB      0x46,0x43,0x44,0x42
004154  32444345          DCB      0x32,0x44,0x43,0x45
004158  32384439          DCB      0x32,0x38,0x44,0x39
00415c  35394632          DCB      0x35,0x39,0x46,0x32
004160  38313542          DCB      0x38,0x31,0x35,0x42
004164  31364638          DCB      0x31,0x36,0x46,0x38
004168  31373938          DCB      0x31,0x37,0x39,0x38
00416c  00000000          DCB      0x00,0x00,0x00,0x00
                          %        76
0041bc  34383341          DCB      0x34,0x38,0x33,0x41
0041c0  44413737          DCB      0x44,0x41,0x37,0x37
0041c4  32364133          DCB      0x32,0x36,0x41,0x33
0041c8  43343635          DCB      0x43,0x34,0x36,0x35
0041cc  35444134          DCB      0x35,0x44,0x41,0x34
0041d0  46424643          DCB      0x46,0x42,0x46,0x43
0041d4  30453131          DCB      0x30,0x45,0x31,0x31
0041d8  30384138          DCB      0x30,0x38,0x41,0x38
0041dc  46443137          DCB      0x46,0x44,0x31,0x37
0041e0  42343438          DCB      0x42,0x34,0x34,0x38
0041e4  41363835          DCB      0x41,0x36,0x38,0x35
0041e8  35343139          DCB      0x35,0x34,0x31,0x39
0041ec  39433437          DCB      0x39,0x43,0x34,0x37
0041f0  44303846          DCB      0x44,0x30,0x38,0x46
0041f4  46423130          DCB      0x46,0x42,0x31,0x30
0041f8  44344238          DCB      0x44,0x34,0x42,0x38
0041fc  00000000          DCB      0x00,0x00,0x00,0x00
                          %        76
                          DCD      0x0000004e
004250  46464646          DCB      0x46,0x46,0x46,0x46
004254  46464646          DCB      0x46,0x46,0x46,0x46
004258  46464646          DCB      0x46,0x46,0x46,0x46
00425c  46464646          DCB      0x46,0x46,0x46,0x46
004260  46464646          DCB      0x46,0x46,0x46,0x46
004264  46464646          DCB      0x46,0x46,0x46,0x46
004268  46464646          DCB      0x46,0x46,0x46,0x46
00426c  46464646          DCB      0x46,0x46,0x46,0x46
004270  46464646          DCB      0x46,0x46,0x46,0x46
004274  46464646          DCB      0x46,0x46,0x46,0x46
004278  46464646          DCB      0x46,0x46,0x46,0x46
00427c  46464646          DCB      0x46,0x46,0x46,0x46
004280  46464646          DCB      0x46,0x46,0x46,0x46
004284  46464645          DCB      0x46,0x46,0x46,0x45
004288  46464646          DCB      0x46,0x46,0x46,0x46
00428c  46433246          DCB      0x46,0x43,0x32,0x46
004290  00000000          DCB      0x00,0x00,0x00,0x00
                          %        108
                          DCD      0x0000004e
004304  46464646          DCB      0x46,0x46,0x46,0x46
004308  46464646          DCB      0x46,0x46,0x46,0x46
00430c  46464646          DCB      0x46,0x46,0x46,0x46
004310  46464646          DCB      0x46,0x46,0x46,0x46
004314  46464646          DCB      0x46,0x46,0x46,0x46
004318  46464646          DCB      0x46,0x46,0x46,0x46
00431c  46464646          DCB      0x46,0x46,0x46,0x46
004320  46464645          DCB      0x46,0x46,0x46,0x45
004324  42414145          DCB      0x42,0x41,0x41,0x45
004328  44434536          DCB      0x44,0x43,0x45,0x36
00432c  41463438          DCB      0x41,0x46,0x34,0x38
004330  41303342          DCB      0x41,0x30,0x33,0x42
004334  42464432          DCB      0x42,0x46,0x44,0x32
004338  35453843          DCB      0x35,0x45,0x38,0x43
00433c  44303336          DCB      0x44,0x30,0x33,0x36
004340  34313431          DCB      0x34,0x31,0x34,0x31
004344  00000000          DCB      0x00,0x00,0x00,0x00
                          %        108
                          DCD      0x00000100
                          DCD      0x00000007
                          DCD      0x00000002
                          DCD      0x00000001
                          DCD      0x00000000
0043c8  12000000          DCB      0x12,0x00,0x00,0x00
                          DCD      0x00000040
0043d0  37443541          DCB      0x37,0x44,0x35,0x41
0043d4  30393735          DCB      0x30,0x39,0x37,0x35
0043d8  46433243          DCB      0x46,0x43,0x32,0x43
0043dc  33303537          DCB      0x33,0x30,0x35,0x37
0043e0  45454636          DCB      0x45,0x45,0x46,0x36
0043e4  37353330          DCB      0x37,0x35,0x33,0x30
0043e8  34313741          DCB      0x34,0x31,0x37,0x41
0043ec  46464537          DCB      0x46,0x46,0x45,0x37
0043f0  46423830          DCB      0x46,0x42,0x38,0x30
0043f4  35354331          DCB      0x35,0x35,0x43,0x31
0043f8  32364443          DCB      0x32,0x36,0x44,0x43
0043fc  35433643          DCB      0x35,0x43,0x36,0x43
004400  45393441          DCB      0x45,0x39,0x34,0x41
004404  34423434          DCB      0x34,0x42,0x34,0x34
004408  46333330          DCB      0x46,0x33,0x33,0x30
00440c  42354439          DCB      0x42,0x35,0x44,0x39
004410  00000000          DCB      0x00,0x00,0x00,0x00
                          %        76
004460  32364443          DCB      0x32,0x36,0x44,0x43
004464  35433643          DCB      0x35,0x43,0x36,0x43
004468  45393441          DCB      0x45,0x39,0x34,0x41
00446c  34423434          DCB      0x34,0x42,0x34,0x34
004470  46333330          DCB      0x46,0x33,0x33,0x30
004474  42354439          DCB      0x42,0x35,0x44,0x39
004478  42424437          DCB      0x42,0x42,0x44,0x37
00447c  37434246          DCB      0x37,0x43,0x42,0x46
004480  39353834          DCB      0x39,0x35,0x38,0x34
004484  31363239          DCB      0x31,0x36,0x32,0x39
004488  35434637          DCB      0x35,0x43,0x46,0x37
00448c  45314345          DCB      0x45,0x31,0x43,0x45
004490  36424343          DCB      0x36,0x42,0x43,0x43
004494  44433138          DCB      0x44,0x43,0x31,0x38
004498  46463843          DCB      0x46,0x46,0x38,0x43
00449c  30374236          DCB      0x30,0x37,0x42,0x36
0044a0  00000000          DCB      0x00,0x00,0x00,0x00
                          %        76
0044f0  38424432          DCB      0x38,0x42,0x44,0x32
0044f4  41454239          DCB      0x41,0x45,0x42,0x39
0044f8  43423745          DCB      0x43,0x42,0x37,0x45
0044fc  35374342          DCB      0x35,0x37,0x43,0x42
004500  32433442          DCB      0x32,0x43,0x34,0x42
004504  34383246          DCB      0x34,0x38,0x32,0x46
004508  46433831          DCB      0x46,0x43,0x38,0x31
00450c  42374146          DCB      0x42,0x37,0x41,0x46
004510  42394445          DCB      0x42,0x39,0x44,0x45
004514  32374531          DCB      0x32,0x37,0x45,0x31
004518  45334244          DCB      0x45,0x33,0x42,0x44
00451c  32334332          DCB      0x32,0x33,0x43,0x32
004520  33413434          DCB      0x33,0x41,0x34,0x34
004524  35334244          DCB      0x35,0x33,0x42,0x44
004528  39414345          DCB      0x39,0x41,0x43,0x45
00452c  33323632          DCB      0x33,0x32,0x36,0x32
004530  00000000          DCB      0x00,0x00,0x00,0x00
                          %        76
004580  35343745          DCB      0x35,0x34,0x37,0x45
004584  46383335          DCB      0x46,0x38,0x33,0x35
004588  43334441          DCB      0x43,0x33,0x44,0x41
00458c  43344644          DCB      0x43,0x34,0x46,0x44
004590  39374638          DCB      0x39,0x37,0x46,0x38
004594  34363141          DCB      0x34,0x36,0x31,0x41
004598  31343631          DCB      0x31,0x34,0x36,0x31
00459c  31444339          DCB      0x31,0x44,0x43,0x39
0045a0  43323737          DCB      0x43,0x32,0x37,0x37
0045a4  34353133          DCB      0x34,0x35,0x31,0x33
0045a8  32444544          DCB      0x32,0x44,0x45,0x44
0045ac  38453534          DCB      0x38,0x45,0x35,0x34
0045b0  35433144          DCB      0x35,0x43,0x31,0x44
0045b4  35344337          DCB      0x35,0x34,0x43,0x37
0045b8  32463034          DCB      0x32,0x46,0x30,0x34
0045bc  36393937          DCB      0x36,0x39,0x39,0x37
0045c0  00000000          DCB      0x00,0x00,0x00,0x00
                          %        76
                          DCD      0x0000004e
004614  41394642          DCB      0x41,0x39,0x46,0x42
004618  35374442          DCB      0x35,0x37,0x44,0x42
00461c  41314545          DCB      0x41,0x31,0x45,0x45
004620  41394243          DCB      0x41,0x39,0x42,0x43
004624  33453636          DCB      0x33,0x45,0x36,0x36
004628  30413930          DCB      0x30,0x41,0x39,0x30
00462c  39443833          DCB      0x39,0x44,0x38,0x33
004630  38443732          DCB      0x38,0x44,0x37,0x32
004634  36453342          DCB      0x36,0x45,0x33,0x42
004638  46363233          DCB      0x46,0x36,0x32,0x33
00463c  44353236          DCB      0x44,0x35,0x32,0x36
004640  32303238          DCB      0x32,0x30,0x32,0x38
004644  32303133          DCB      0x32,0x30,0x31,0x33
004648  34383144          DCB      0x34,0x38,0x31,0x44
00464c  31463645          DCB      0x31,0x46,0x36,0x45
004650  35333737          DCB      0x35,0x33,0x37,0x37
004654  00000000          DCB      0x00,0x00,0x00,0x00
                          %        108
                          DCD      0x0000004e
0046c8  41394642          DCB      0x41,0x39,0x46,0x42
0046cc  35374442          DCB      0x35,0x37,0x44,0x42
0046d0  41314545          DCB      0x41,0x31,0x45,0x45
0046d4  41394243          DCB      0x41,0x39,0x42,0x43
0046d8  33453636          DCB      0x33,0x45,0x36,0x36
0046dc  30413930          DCB      0x30,0x41,0x39,0x30
0046e0  39443833          DCB      0x39,0x44,0x38,0x33
0046e4  38443731          DCB      0x38,0x44,0x37,0x31
0046e8  38433339          DCB      0x38,0x43,0x33,0x39
0046ec  37414133          DCB      0x37,0x41,0x41,0x33
0046f0  42353631          DCB      0x42,0x35,0x36,0x31
0046f4  41364637          DCB      0x41,0x36,0x46,0x37
0046f8  39303145          DCB      0x39,0x30,0x31,0x45
0046fc  30453832          DCB      0x30,0x45,0x38,0x32
004700  39373438          DCB      0x39,0x37,0x34,0x38
004704  35364137          DCB      0x35,0x36,0x41,0x37
004708  00000000          DCB      0x00,0x00,0x00,0x00
                          %        108
                          DCD      0x00000100
                          DCD      0x00000007
                          DCD      0x00000002
                          DCD      0x00000001
                          DCD      0x00000000
00478c  13000000          DCB      0x13,0x00,0x00,0x00
                          DCD      0x00000060
004794  37424333          DCB      0x37,0x42,0x43,0x33
004798  38324336          DCB      0x38,0x32,0x43,0x36
00479c  33443843          DCB      0x33,0x44,0x38,0x43
0047a0  31353043          DCB      0x31,0x35,0x30,0x43
0047a4  33433732          DCB      0x33,0x43,0x37,0x32
0047a8  30383041          DCB      0x30,0x38,0x30,0x41
0047ac  43453035          DCB      0x43,0x45,0x30,0x35
0047b0  41464130          DCB      0x41,0x46,0x41,0x30
0047b4  43324245          DCB      0x43,0x32,0x42,0x45
0047b8  41323845          DCB      0x41,0x32,0x38,0x45
0047bc  34464232          DCB      0x34,0x46,0x42,0x32
0047c0  32373837          DCB      0x32,0x37,0x38,0x37
0047c4  31333931          DCB      0x31,0x33,0x39,0x31
0047c8  36354546          DCB      0x36,0x35,0x45,0x46
0047cc  42413931          DCB      0x42,0x41,0x39,0x31
0047d0  46393046          DCB      0x46,0x39,0x30,0x46
0047d4  38414135          DCB      0x38,0x41,0x41,0x35
0047d8  38313441          DCB      0x38,0x31,0x34,0x41
0047dc  35303341          DCB      0x35,0x30,0x33,0x41
0047e0  44344542          DCB      0x44,0x34,0x45,0x42
0047e4  30344138          DCB      0x30,0x34,0x41,0x38
0047e8  43374444          DCB      0x43,0x37,0x44,0x44
0047ec  32324345          DCB      0x32,0x32,0x43,0x45
0047f0  32383236          DCB      0x32,0x38,0x32,0x36
0047f4  00000000          DCB      0x00,0x00,0x00,0x00
                          %        44
004824  30344138          DCB      0x30,0x34,0x41,0x38
004828  43374444          DCB      0x43,0x37,0x44,0x44
00482c  32324345          DCB      0x32,0x32,0x43,0x45
004830  32383236          DCB      0x32,0x38,0x32,0x36
004834  38423339          DCB      0x38,0x42,0x33,0x39
004838  42353534          DCB      0x42,0x35,0x35,0x34
00483c  31364630          DCB      0x31,0x36,0x46,0x30
004840  34343743          DCB      0x34,0x34,0x37,0x43
004844  32464237          DCB      0x32,0x46,0x42,0x37
004848  37444531          DCB      0x37,0x44,0x45,0x31
00484c  30374443          DCB      0x30,0x37,0x44,0x43
004850  44324136          DCB      0x44,0x32,0x41,0x36
004854  32453838          DCB      0x32,0x45,0x38,0x38
004858  30454135          DCB      0x30,0x45,0x41,0x35
00485c  33454542          DCB      0x33,0x45,0x45,0x42
004860  36324435          DCB      0x36,0x32,0x44,0x35
004864  37434234          DCB      0x37,0x43,0x42,0x34
004868  33393032          DCB      0x33,0x39,0x30,0x32
00486c  39354442          DCB      0x39,0x35,0x44,0x42
004870  43393934          DCB      0x43,0x39,0x39,0x34
004874  33414237          DCB      0x33,0x41,0x42,0x37
004878  38363936          DCB      0x38,0x36,0x39,0x36
00487c  46413530          DCB      0x46,0x41,0x35,0x30
004880  34433131          DCB      0x34,0x43,0x31,0x31
004884  00000000          DCB      0x00,0x00,0x00,0x00
                          %        44
0048b4  31443143          DCB      0x31,0x44,0x31,0x43
0048b8  36344630          DCB      0x36,0x34,0x46,0x30
0048bc  36384346          DCB      0x36,0x38,0x43,0x46
0048c0  34354646          DCB      0x34,0x35,0x46,0x46
0048c4  41324136          DCB      0x41,0x32,0x41,0x36
0048c8  33413831          DCB      0x33,0x41,0x38,0x31
0048cc  42374331          DCB      0x42,0x37,0x43,0x31
0048d0  33463642          DCB      0x33,0x46,0x36,0x42
0048d4  38383437          DCB      0x38,0x38,0x34,0x37
0048d8  41334537          DCB      0x41,0x33,0x45,0x37
0048dc  37454631          DCB      0x37,0x45,0x46,0x31
0048e0  34464533          DCB      0x34,0x46,0x45,0x33
0048e4  44423746          DCB      0x44,0x42,0x37,0x46
0048e8  43414645          DCB      0x43,0x41,0x46,0x45
0048ec  30434244          DCB      0x30,0x43,0x42,0x44
0048f0  31304538          DCB      0x31,0x30,0x45,0x38
0048f4  45383236          DCB      0x45,0x38,0x32,0x36
0048f8  45303334          DCB      0x45,0x30,0x33,0x34
0048fc  33364436          DCB      0x33,0x36,0x44,0x36
004900  34364141          DCB      0x34,0x36,0x41,0x41
004904  45463837          DCB      0x45,0x46,0x38,0x37
004908  42324532          DCB      0x42,0x32,0x45,0x32
00490c  34374434          DCB      0x34,0x37,0x44,0x34
004910  41463145          DCB      0x41,0x46,0x31,0x45
004914  00000000          DCB      0x00,0x00,0x00,0x00
                          %        44
004944  38414245          DCB      0x38,0x41,0x42,0x45
004948  31443735          DCB      0x31,0x44,0x37,0x35
00494c  32304639          DCB      0x32,0x30,0x46,0x39
004950  43324134          DCB      0x43,0x32,0x41,0x34
004954  35434231          DCB      0x35,0x43,0x42,0x31
004958  45423845          DCB      0x45,0x42,0x38,0x45
00495c  39354346          DCB      0x39,0x35,0x43,0x46
004960  44353532          DCB      0x44,0x35,0x35,0x32
004964  36324237          DCB      0x36,0x32,0x42,0x37
004968  30423239          DCB      0x30,0x42,0x32,0x39
00496c  46454543          DCB      0x46,0x45,0x45,0x43
004970  35383634          DCB      0x35,0x38,0x36,0x34
004974  45313943          DCB      0x45,0x31,0x39,0x43
004978  30353446          DCB      0x30,0x35,0x34,0x46
00497c  46393931          DCB      0x46,0x39,0x39,0x31
004980  32393238          DCB      0x32,0x39,0x32,0x38
004984  30453436          DCB      0x30,0x45,0x34,0x36
004988  34363231          DCB      0x34,0x36,0x32,0x31
00498c  37373931          DCB      0x37,0x37,0x39,0x31
004990  38313131          DCB      0x38,0x31,0x31,0x31
004994  34323832          DCB      0x34,0x32,0x38,0x32
004998  30333431          DCB      0x30,0x33,0x34,0x31
00499c  32363343          DCB      0x32,0x36,0x33,0x43
0049a0  35333135          DCB      0x35,0x33,0x31,0x35
0049a4  00000000          DCB      0x00,0x00,0x00,0x00
                          %        44
                          DCD      0x00000074
0049d8  38434239          DCB      0x38,0x43,0x42,0x39
0049dc  31453832          DCB      0x31,0x45,0x38,0x32
0049e0  41333338          DCB      0x41,0x33,0x33,0x38
0049e4  36443238          DCB      0x36,0x44,0x32,0x38
0049e8  30463544          DCB      0x30,0x46,0x35,0x44
0049ec  36463745          DCB      0x36,0x46,0x37,0x45
0049f0  35304536          DCB      0x35,0x30,0x45,0x36
0049f4  34314446          DCB      0x34,0x31,0x44,0x46
0049f8  31353246          DCB      0x31,0x35,0x32,0x46
0049fc  37313039          DCB      0x37,0x31,0x30,0x39
004a00  45443534          DCB      0x45,0x44,0x35,0x34
004a04  35364234          DCB      0x35,0x36,0x42,0x34
004a08  31324231          DCB      0x31,0x32,0x42,0x31
004a0c  44413139          DCB      0x44,0x41,0x31,0x39
004a10  37464237          DCB      0x37,0x46,0x42,0x37
004a14  31313233          DCB      0x31,0x31,0x32,0x33
004a18  41434433          DCB      0x41,0x43,0x44,0x33
004a1c  41373239          DCB      0x41,0x37,0x32,0x39
004a20  39303144          DCB      0x39,0x30,0x31,0x44
004a24  31413731          DCB      0x31,0x41,0x37,0x31
004a28  38373437          DCB      0x38,0x37,0x34,0x37
004a2c  30303133          DCB      0x30,0x30,0x31,0x33
004a30  33313037          DCB      0x33,0x31,0x30,0x37
004a34  45433533          DCB      0x45,0x43,0x35,0x33
004a38  00000000          DCB      0x00,0x00,0x00,0x00
                          %        76
                          DCD      0x00000074
004a8c  38434239          DCB      0x38,0x43,0x42,0x39
004a90  31453832          DCB      0x31,0x45,0x38,0x32
004a94  41333338          DCB      0x41,0x33,0x33,0x38
004a98  36443238          DCB      0x36,0x44,0x32,0x38
004a9c  30463544          DCB      0x30,0x46,0x35,0x44
004aa0  36463745          DCB      0x36,0x46,0x37,0x45
004aa4  35304536          DCB      0x35,0x30,0x45,0x36
004aa8  34314446          DCB      0x34,0x31,0x44,0x46
004aac  31353246          DCB      0x31,0x35,0x32,0x46
004ab0  37313039          DCB      0x37,0x31,0x30,0x39
004ab4  45443534          DCB      0x45,0x44,0x35,0x34
004ab8  35364233          DCB      0x35,0x36,0x42,0x33
004abc  31463136          DCB      0x31,0x46,0x31,0x36
004ac0  36453643          DCB      0x36,0x45,0x36,0x43
004ac4  41433034          DCB      0x41,0x43,0x30,0x34
004ac8  32354137          DCB      0x32,0x35,0x41,0x37
004acc  43463341          DCB      0x43,0x46,0x33,0x41
004ad0  42364146          DCB      0x42,0x36,0x41,0x46
004ad4  36423746          DCB      0x36,0x42,0x37,0x46
004ad8  43333130          DCB      0x43,0x33,0x31,0x30
004adc  33423838          DCB      0x33,0x42,0x38,0x38
004ae0  33323032          DCB      0x33,0x32,0x30,0x32
004ae4  45393034          DCB      0x45,0x39,0x30,0x34
004ae8  36353635          DCB      0x36,0x35,0x36,0x35
004aec  00000000          DCB      0x00,0x00,0x00,0x00
                          %        76
                          DCD      0x00000180
                          DCD      0x00000007
                          DCD      0x00000002
                          DCD      0x00000001
                          DCD      0x00000000
004b50  14000000          DCB      0x14,0x00,0x00,0x00
                          DCD      0x00000080
004b58  37383330          DCB      0x37,0x38,0x33,0x30
004b5c  41333331          DCB      0x41,0x33,0x33,0x31
004b60  38423630          DCB      0x38,0x42,0x36,0x30
004b64  33423839          DCB      0x33,0x42,0x38,0x39
004b68  45323332          DCB      0x45,0x32,0x33,0x32
004b6c  37313435          DCB      0x37,0x31,0x34,0x35
004b70  41433233          DCB      0x41,0x43,0x32,0x33
004b74  34434335          DCB      0x34,0x43,0x43,0x35
004b78  39344342          DCB      0x39,0x34,0x43,0x42
004b7c  44443844          DCB      0x44,0x44,0x38,0x44
004b80  33444639          DCB      0x33,0x44,0x46,0x39
004b84  31363130          DCB      0x31,0x36,0x31,0x30
004b88  41383334          DCB      0x41,0x38,0x33,0x34
004b8c  34314341          DCB      0x34,0x31,0x43,0x41
004b90  45413938          DCB      0x45,0x41,0x39,0x38
004b94  36334243          DCB      0x36,0x33,0x42,0x43
004b98  32444544          DCB      0x32,0x44,0x45,0x44
004b9c  35443541          DCB      0x35,0x44,0x35,0x41
004ba0  41383235          DCB      0x41,0x38,0x32,0x35
004ba4  33414131          DCB      0x33,0x41,0x41,0x31
004ba8  30413245          DCB      0x30,0x41,0x32,0x45
004bac  46314339          DCB      0x46,0x31,0x43,0x39
004bb0  38423941          DCB      0x38,0x42,0x39,0x41
004bb4  43384235          DCB      0x43,0x38,0x42,0x35
004bb8  37463131          DCB      0x37,0x46,0x31,0x31
004bbc  31374137          DCB      0x31,0x37,0x41,0x37
004bc0  32424632          DCB      0x32,0x42,0x46,0x32
004bc4  43374239          DCB      0x43,0x37,0x42,0x39
004bc8  45374331          DCB      0x45,0x37,0x43,0x31
004bcc  41433444          DCB      0x41,0x43,0x34,0x44
004bd0  37374643          DCB      0x37,0x37,0x46,0x43
004bd4  39344341          DCB      0x39,0x34,0x43,0x41
004bd8  00000000          DCB      0x00,0x00,0x00,0x00
                          %        12
004be8  33444639          DCB      0x33,0x44,0x46,0x39
004bec  31363130          DCB      0x31,0x36,0x31,0x30
004bf0  41383334          DCB      0x41,0x38,0x33,0x34
004bf4  34314341          DCB      0x34,0x31,0x43,0x41
004bf8  45413938          DCB      0x45,0x41,0x39,0x38
004bfc  36334243          DCB      0x36,0x33,0x42,0x43
004c00  32444544          DCB      0x32,0x44,0x45,0x44
004c04  35443541          DCB      0x35,0x44,0x35,0x41
004c08  41383235          DCB      0x41,0x38,0x32,0x35
004c0c  33414131          DCB      0x33,0x41,0x41,0x31
004c10  30413245          DCB      0x30,0x41,0x32,0x45
004c14  46314339          DCB      0x46,0x31,0x43,0x39
004c18  38423941          DCB      0x38,0x42,0x39,0x41
004c1c  43384235          DCB      0x43,0x38,0x42,0x35
004c20  37463131          DCB      0x37,0x46,0x31,0x31
004c24  31374137          DCB      0x31,0x37,0x41,0x37
004c28  32424632          DCB      0x32,0x42,0x46,0x32
004c2c  43374239          DCB      0x43,0x37,0x42,0x39
004c30  45374331          DCB      0x45,0x37,0x43,0x31
004c34  41433444          DCB      0x41,0x43,0x34,0x44
004c38  37374643          DCB      0x37,0x37,0x46,0x43
004c3c  39344341          DCB      0x39,0x34,0x43,0x41
004c40  44433038          DCB      0x44,0x43,0x30,0x38
004c44  33453637          DCB      0x33,0x45,0x36,0x37
004c48  39383430          DCB      0x39,0x38,0x34,0x30
004c4c  35304237          DCB      0x35,0x30,0x42,0x37
004c50  35454241          DCB      0x35,0x45,0x42,0x41
004c54  45354444          DCB      0x45,0x35,0x44,0x44
004c58  32383039          DCB      0x32,0x38,0x30,0x39
004c5c  42443633          DCB      0x42,0x44,0x36,0x33
004c60  38303136          DCB      0x38,0x30,0x31,0x36
004c64  46373233          DCB      0x46,0x37,0x32,0x33
004c68  00000000          DCB      0x00,0x00,0x00,0x00
                          %        12
004c78  38314145          DCB      0x38,0x31,0x41,0x45
004c7c  45344244          DCB      0x45,0x34,0x42,0x44
004c80  44383245          DCB      0x44,0x38,0x32,0x45
004c84  44393634          DCB      0x44,0x39,0x36,0x34
004c88  35413231          DCB      0x35,0x41,0x32,0x31
004c8c  33323245          DCB      0x33,0x32,0x32,0x45
004c90  39433443          DCB      0x39,0x43,0x34,0x43
004c94  36413933          DCB      0x36,0x41,0x39,0x33
004c98  38354544          DCB      0x38,0x35,0x45,0x44
004c9c  39463730          DCB      0x39,0x46,0x37,0x30
004ca0  42354439          DCB      0x42,0x35,0x44,0x39
004ca4  31364331          DCB      0x31,0x36,0x43,0x31
004ca8  42343342          DCB      0x42,0x34,0x33,0x42
004cac  36324545          DCB      0x36,0x32,0x45,0x45
004cb0  46344430          DCB      0x46,0x34,0x44,0x30
004cb4  30393845          DCB      0x30,0x39,0x38,0x45
004cb8  46463342          DCB      0x46,0x46,0x33,0x42
004cbc  31463738          DCB      0x31,0x46,0x37,0x38
004cc0  45324430          DCB      0x45,0x32,0x44,0x30
004cc4  44343844          DCB      0x44,0x34,0x38,0x44
004cc8  35304431          DCB      0x35,0x30,0x44,0x31
004ccc  36383742          DCB      0x36,0x38,0x37,0x42
004cd0  39334239          DCB      0x39,0x33,0x42,0x39
004cd4  37443546          DCB      0x37,0x44,0x35,0x46
004cd8  37433644          DCB      0x37,0x43,0x36,0x44
004cdc  35303437          DCB      0x35,0x30,0x34,0x37
004ce0  34303641          DCB      0x34,0x30,0x36,0x41
004ce4  35453638          DCB      0x35,0x45,0x36,0x38
004ce8  38423335          DCB      0x38,0x42,0x33,0x35
004cec  32323039          DCB      0x32,0x32,0x30,0x39
004cf0  42434239          DCB      0x42,0x43,0x42,0x39
004cf4  46383232          DCB      0x46,0x38,0x32,0x32
004cf8  00000000          DCB      0x00,0x00,0x00,0x00
                          %        12
004d08  37444445          DCB      0x37,0x44,0x44,0x45
004d0c  33383544          DCB      0x33,0x38,0x35,0x44
004d10  35363633          DCB      0x35,0x36,0x36,0x33
004d14  33324543          DCB      0x33,0x32,0x45,0x43
004d18  43304541          DCB      0x43,0x30,0x45,0x41
004d1c  42464139          DCB      0x42,0x46,0x41,0x39
004d20  43463738          DCB      0x43,0x46,0x37,0x38
004d24  32324644          DCB      0x32,0x32,0x46,0x44
004d28  46323039          DCB      0x46,0x32,0x30,0x39
004d2c  46373030          DCB      0x46,0x37,0x30,0x30
004d30  32344135          DCB      0x32,0x34,0x41,0x35
004d34  37423141          DCB      0x37,0x42,0x31,0x41
004d38  41303030          DCB      0x41,0x30,0x30,0x30
004d3c  43353542          DCB      0x43,0x35,0x35,0x42
004d40  38383146          DCB      0x38,0x38,0x31,0x46
004d44  38313131          DCB      0x38,0x31,0x31,0x31
004d48  42324443          DCB      0x42,0x32,0x44,0x43
004d4c  44453439          DCB      0x44,0x45,0x34,0x39
004d50  34413546          DCB      0x34,0x41,0x35,0x46
004d54  34383545          DCB      0x34,0x38,0x35,0x45
004d58  35424341          DCB      0x35,0x42,0x43,0x41
004d5c  34424438          DCB      0x34,0x42,0x44,0x38
004d60  38413237          DCB      0x38,0x41,0x32,0x37
004d64  36334145          DCB      0x36,0x33,0x41,0x45
004d68  44314341          DCB      0x44,0x31,0x43,0x41
004d6c  32423246          DCB      0x32,0x42,0x32,0x46
004d70  41384630          DCB      0x41,0x38,0x46,0x30
004d74  35343036          DCB      0x35,0x34,0x30,0x36
004d78  37384344          DCB      0x37,0x38,0x43,0x44
004d7c  31453046          DCB      0x31,0x45,0x30,0x46
004d80  33414438          DCB      0x33,0x41,0x44,0x38
004d84  30383932          DCB      0x30,0x38,0x39,0x32
004d88  00000000          DCB      0x00,0x00,0x00,0x00
                          %        12
                          DCD      0x0000009c
004d9c  41414444          DCB      0x41,0x41,0x44,0x44
004da0  39444238          DCB      0x39,0x44,0x42,0x38
004da4  44424539          DCB      0x44,0x42,0x45,0x39
004da8  43343842          DCB      0x43,0x34,0x38,0x42
004dac  33464434          DCB      0x33,0x46,0x44,0x34
004db0  45364145          DCB      0x45,0x36,0x41,0x45
004db4  33334339          DCB      0x33,0x33,0x43,0x39
004db8  46433037          DCB      0x46,0x43,0x30,0x37
004dbc  43423330          DCB      0x43,0x42,0x33,0x30
004dc0  38444233          DCB      0x38,0x44,0x42,0x33
004dc4  42334339          DCB      0x42,0x33,0x43,0x39
004dc8  44323045          DCB      0x44,0x32,0x30,0x45
004dcc  44363633          DCB      0x44,0x36,0x36,0x33
004dd0  39434341          DCB      0x39,0x43,0x43,0x41
004dd4  37303333          DCB      0x37,0x30,0x33,0x33
004dd8  30383731          DCB      0x30,0x38,0x37,0x31
004ddc  37443444          DCB      0x37,0x44,0x34,0x44
004de0  39423030          DCB      0x39,0x42,0x30,0x30
004de4  39424336          DCB      0x39,0x42,0x43,0x36
004de8  36383432          DCB      0x36,0x38,0x34,0x32
004dec  41454344          DCB      0x41,0x45,0x43,0x44
004df0  41313241          DCB      0x41,0x31,0x32,0x41
004df4  45364133          DCB      0x45,0x36,0x41,0x33
004df8  38304536          DCB      0x38,0x30,0x45,0x36
004dfc  32383831          DCB      0x32,0x38,0x38,0x31
004e00  46463246          DCB      0x46,0x46,0x32,0x46
004e04  32443832          DCB      0x32,0x44,0x38,0x32
004e08  43363835          DCB      0x43,0x36,0x38,0x35
004e0c  32384141          DCB      0x32,0x38,0x41,0x41
004e10  36303536          DCB      0x36,0x30,0x35,0x36
004e14  35383341          DCB      0x35,0x38,0x33,0x41
004e18  34384633          DCB      0x34,0x38,0x46,0x33
004e1c  00000000          DCB      0x00,0x00,0x00,0x00
                          %        44
                          DCD      0x0000009c
004e50  41414444          DCB      0x41,0x41,0x44,0x44
004e54  39444238          DCB      0x39,0x44,0x42,0x38
004e58  44424539          DCB      0x44,0x42,0x45,0x39
004e5c  43343842          DCB      0x43,0x34,0x38,0x42
004e60  33464434          DCB      0x33,0x46,0x44,0x34
004e64  45364145          DCB      0x45,0x36,0x41,0x45
004e68  33334339          DCB      0x33,0x33,0x43,0x39
004e6c  46433037          DCB      0x46,0x43,0x30,0x37
004e70  43423330          DCB      0x43,0x42,0x33,0x30
004e74  38444233          DCB      0x38,0x44,0x42,0x33
004e78  42334339          DCB      0x42,0x33,0x43,0x39
004e7c  44323045          DCB      0x44,0x32,0x30,0x45
004e80  44363633          DCB      0x44,0x36,0x36,0x33
004e84  39434341          DCB      0x39,0x43,0x43,0x41
004e88  37303333          DCB      0x37,0x30,0x33,0x33
004e8c  30383730          DCB      0x30,0x38,0x37,0x30
004e90  35353345          DCB      0x35,0x35,0x33,0x45
004e94  35433431          DCB      0x35,0x43,0x34,0x31
004e98  34434139          DCB      0x34,0x43,0x41,0x39
004e9c  32363139          DCB      0x32,0x36,0x31,0x39
004ea0  34313836          DCB      0x34,0x31,0x38,0x36
004ea4  36313139          DCB      0x36,0x31,0x31,0x39
004ea8  37464143          DCB      0x37,0x46,0x41,0x43
004eac  31303437          DCB      0x31,0x30,0x34,0x37
004eb0  31444231          DCB      0x31,0x44,0x42,0x31
004eb4  44333831          DCB      0x44,0x33,0x38,0x31
004eb8  30383544          DCB      0x30,0x38,0x35,0x44
004ebc  44414444          DCB      0x44,0x41,0x44,0x44
004ec0  42353837          DCB      0x42,0x35,0x38,0x37
004ec4  39363832          DCB      0x39,0x36,0x38,0x32
004ec8  39434139          DCB      0x39,0x43,0x41,0x39
004ecc  30303639          DCB      0x30,0x30,0x36,0x39
004ed0  00000000          DCB      0x00,0x00,0x00,0x00
                          %        44
                          DCD      0x00000200
                          DCD      0x00000007
                          DCD      0x00000002
                          DCD      0x00000001
                          DCD      0x00000000

                          AREA ||.data||, DATA, ALIGN=2

                  pCurve
                          DCD      0x00000000
                  g_ECC_done
                          DCD      0x00000000
                  g_ECCERR_done
                          DCD      0x00000000
                  hex_char_tbl
00000c  30313233          DCB      0x30,0x31,0x32,0x33
000010  34353637          DCB      0x34,0x35,0x36,0x37
000014  38396162          DCB      0x38,0x39,0x61,0x62
000018  63646566          DCB      0x63,0x64,0x65,0x66
00001c  00                DCB      0x00

;*** Start embedded assembler ***

#line 1 "..\\..\\..\\Library\\StdDriver\\src\\crypto.c"
	AREA ||.rev16_text||, CODE
	THUMB
	EXPORT |__asm___8_crypto_c_1a743e0f____REV16|
#line 388 "..\\..\\..\\Library\\CMSIS\\Include\\cmsis_armcc.h"
|__asm___8_crypto_c_1a743e0f____REV16| PROC
#line 389

 rev16 r0, r0
 bx lr
	ENDP
	AREA ||.revsh_text||, CODE
	THUMB
	EXPORT |__asm___8_crypto_c_1a743e0f____REVSH|
#line 402
|__asm___8_crypto_c_1a743e0f____REVSH| PROC
#line 403

 revsh r0, r0
 bx lr
	ENDP
	AREA ||.rrx_text||, CODE
	THUMB
	EXPORT |__asm___8_crypto_c_1a743e0f____RRX|
#line 587
|__asm___8_crypto_c_1a743e0f____RRX| PROC
#line 588

 rrx r0, r0
 bx lr
	ENDP

;*** End   embedded assembler ***
